
LAB10.elf:     file format elf32-littlearm

Sections:
Idx Name          Size      VMA       LMA       File off  Algn
  0 .text         00001920  00000000  00000000  00010000  2**2
                  CONTENTS, ALLOC, LOAD, READONLY, CODE
  1 .relocate     00000434  20000000  00001920  00020000  2**3
                  CONTENTS, ALLOC, LOAD, DATA
  2 .bss          0000008c  20000434  00001d54  00020434  2**2
                  ALLOC
  3 .stack        00002000  200004c0  00001de0  00020434  2**0
                  ALLOC
  4 .ARM.attributes 00000028  00000000  00000000  00020434  2**0
                  CONTENTS, READONLY
  5 .comment      00000059  00000000  00000000  0002045c  2**0
                  CONTENTS, READONLY
  6 .debug_info   00010749  00000000  00000000  000204b5  2**0
                  CONTENTS, READONLY, DEBUGGING
  7 .debug_abbrev 00001283  00000000  00000000  00030bfe  2**0
                  CONTENTS, READONLY, DEBUGGING
  8 .debug_loc    00000935  00000000  00000000  00031e81  2**0
                  CONTENTS, READONLY, DEBUGGING
  9 .debug_aranges 00000228  00000000  00000000  000327b6  2**0
                  CONTENTS, READONLY, DEBUGGING
 10 .debug_ranges 00000188  00000000  00000000  000329de  2**0
                  CONTENTS, READONLY, DEBUGGING
 11 .debug_macro  00012671  00000000  00000000  00032b66  2**0
                  CONTENTS, READONLY, DEBUGGING
 12 .debug_line   000049a6  00000000  00000000  000451d7  2**0
                  CONTENTS, READONLY, DEBUGGING
 13 .debug_str    0006fc92  00000000  00000000  00049b7d  2**0
                  CONTENTS, READONLY, DEBUGGING
 14 .debug_frame  00000574  00000000  00000000  000b9810  2**2
                  CONTENTS, READONLY, DEBUGGING

Disassembly of section .text:

00000000 <exception_table>:
       0:	c0 24 00 20 cd 04 00 00 c9 04 00 00 c9 04 00 00     .$. ............
	...
      2c:	c9 04 00 00 00 00 00 00 00 00 00 00 c9 04 00 00     ................
      3c:	65 0d 00 00 c9 04 00 00 c9 04 00 00 c9 04 00 00     e...............
      4c:	c9 04 00 00 c9 04 00 00 c9 04 00 00 c9 04 00 00     ................
      5c:	c9 04 00 00 05 06 00 00 c9 04 00 00 c9 04 00 00     ................
      6c:	c9 04 00 00 c9 04 00 00 f1 0e 00 00 c9 04 00 00     ................
      7c:	c9 04 00 00 c9 04 00 00 c9 04 00 00 81 04 00 00     ................
      8c:	c9 04 00 00 c9 04 00 00 00 00 00 00 00 00 00 00     ................
      9c:	ad 02 00 00 c9 04 00 00 c9 04 00 00 c9 04 00 00     ................
      ac:	c9 04 00 00 00 00 00 00                             ........

000000b4 <__do_global_dtors_aux>:
      b4:	b510      	push	{r4, lr}
      b6:	4c06      	ldr	r4, [pc, #24]	; (d0 <__do_global_dtors_aux+0x1c>)
      b8:	7823      	ldrb	r3, [r4, #0]
      ba:	2b00      	cmp	r3, #0
      bc:	d107      	bne.n	ce <__do_global_dtors_aux+0x1a>
      be:	4b05      	ldr	r3, [pc, #20]	; (d4 <__do_global_dtors_aux+0x20>)
      c0:	2b00      	cmp	r3, #0
      c2:	d002      	beq.n	ca <__do_global_dtors_aux+0x16>
      c4:	4804      	ldr	r0, [pc, #16]	; (d8 <__do_global_dtors_aux+0x24>)
      c6:	e000      	b.n	ca <__do_global_dtors_aux+0x16>
      c8:	bf00      	nop
      ca:	2301      	movs	r3, #1
      cc:	7023      	strb	r3, [r4, #0]
      ce:	bd10      	pop	{r4, pc}
      d0:	20000434 	.word	0x20000434
      d4:	00000000 	.word	0x00000000
      d8:	00001920 	.word	0x00001920

000000dc <frame_dummy>:
      dc:	4b08      	ldr	r3, [pc, #32]	; (100 <frame_dummy+0x24>)
      de:	b510      	push	{r4, lr}
      e0:	2b00      	cmp	r3, #0
      e2:	d003      	beq.n	ec <frame_dummy+0x10>
      e4:	4907      	ldr	r1, [pc, #28]	; (104 <frame_dummy+0x28>)
      e6:	4808      	ldr	r0, [pc, #32]	; (108 <frame_dummy+0x2c>)
      e8:	e000      	b.n	ec <frame_dummy+0x10>
      ea:	bf00      	nop
      ec:	4807      	ldr	r0, [pc, #28]	; (10c <frame_dummy+0x30>)
      ee:	6803      	ldr	r3, [r0, #0]
      f0:	2b00      	cmp	r3, #0
      f2:	d100      	bne.n	f6 <frame_dummy+0x1a>
      f4:	bd10      	pop	{r4, pc}
      f6:	4b06      	ldr	r3, [pc, #24]	; (110 <frame_dummy+0x34>)
      f8:	2b00      	cmp	r3, #0
      fa:	d0fb      	beq.n	f4 <frame_dummy+0x18>
      fc:	4798      	blx	r3
      fe:	e7f9      	b.n	f4 <frame_dummy+0x18>
     100:	00000000 	.word	0x00000000
     104:	20000438 	.word	0x20000438
     108:	00001920 	.word	0x00001920
     10c:	00001920 	.word	0x00001920
     110:	00000000 	.word	0x00000000

00000114 <adc_init>:

//==============================================================================
void adc_init()
{
	// enable ADC
	PM->APBCMASK.bit.ADC_ = 1;
     114:	4a38      	ldr	r2, [pc, #224]	; (1f8 <adc_init+0xe4>)
     116:	6a11      	ldr	r1, [r2, #32]
     118:	2380      	movs	r3, #128	; 0x80
     11a:	025b      	lsls	r3, r3, #9
     11c:	430b      	orrs	r3, r1
     11e:	6213      	str	r3, [r2, #32]
	
	// Enable gen clk
	GCLK->CLKCTRL.reg = GCLK_CLKCTRL_ID_ADC |
     120:	4a36      	ldr	r2, [pc, #216]	; (1fc <adc_init+0xe8>)
     122:	4b37      	ldr	r3, [pc, #220]	; (200 <adc_init+0xec>)
     124:	805a      	strh	r2, [r3, #2]
	GCLK_CLKCTRL_GEN_GCLK0 |
	GCLK_CLKCTRL_CLKEN;
	while (GCLK->STATUS.bit.SYNCBUSY);
     126:	001a      	movs	r2, r3
     128:	7853      	ldrb	r3, [r2, #1]
     12a:	09db      	lsrs	r3, r3, #7
     12c:	d1fc      	bne.n	128 <adc_init+0x14>
	
	// Reset ADC
	ADC->CTRLA.bit.SWRST = 1;
     12e:	4a35      	ldr	r2, [pc, #212]	; (204 <adc_init+0xf0>)
     130:	7813      	ldrb	r3, [r2, #0]
     132:	2101      	movs	r1, #1
     134:	430b      	orrs	r3, r1
     136:	7013      	strb	r3, [r2, #0]
	while (ADC->CTRLA.bit.SWRST || ADC->STATUS.bit.SYNCBUSY);
     138:	7813      	ldrb	r3, [r2, #0]
     13a:	07db      	lsls	r3, r3, #31
     13c:	d4fc      	bmi.n	138 <adc_init+0x24>
     13e:	7e53      	ldrb	r3, [r2, #25]
     140:	09db      	lsrs	r3, r3, #7
     142:	d1f9      	bne.n	138 <adc_init+0x24>
	
	// Disable run standby and ADC enable
	ADC->CTRLA.bit.RUNSTDBY = 0;
     144:	4b2f      	ldr	r3, [pc, #188]	; (204 <adc_init+0xf0>)
     146:	781a      	ldrb	r2, [r3, #0]
     148:	2104      	movs	r1, #4
     14a:	438a      	bics	r2, r1
     14c:	701a      	strb	r2, [r3, #0]
	ADC->CTRLA.bit.ENABLE = 0;
     14e:	781a      	ldrb	r2, [r3, #0]
     150:	3902      	subs	r1, #2
     152:	438a      	bics	r2, r1
     154:	701a      	strb	r2, [r3, #0]
	
	// Select reference voltage
	ADC->REFCTRL.bit.REFSEL = 0x02; // 0.5*VDDANA
     156:	785a      	ldrb	r2, [r3, #1]
     158:	310d      	adds	r1, #13
     15a:	438a      	bics	r2, r1
     15c:	2002      	movs	r0, #2
     15e:	4302      	orrs	r2, r0
     160:	705a      	strb	r2, [r3, #1]
	
	// Select average ctrl
	ADC->AVGCTRL.bit.ADJRES = 0;
     162:	789a      	ldrb	r2, [r3, #2]
     164:	2070      	movs	r0, #112	; 0x70
     166:	4382      	bics	r2, r0
     168:	709a      	strb	r2, [r3, #2]
	ADC->AVGCTRL.bit.SAMPLENUM = 0;
     16a:	789a      	ldrb	r2, [r3, #2]
     16c:	438a      	bics	r2, r1
     16e:	709a      	strb	r2, [r3, #2]
	
	// Select sample ctrl
	ADC->SAMPCTRL.bit.SAMPLEN = 0;
     170:	78da      	ldrb	r2, [r3, #3]
     172:	3130      	adds	r1, #48	; 0x30
     174:	438a      	bics	r2, r1
     176:	70da      	strb	r2, [r3, #3]
	
	// Set prescaler, resolution, freerun mode, and gain correction
	ADC->CTRLB.bit.PRESCALER = 0x6; // prescaler of 256
     178:	889a      	ldrh	r2, [r3, #4]
     17a:	4923      	ldr	r1, [pc, #140]	; (208 <adc_init+0xf4>)
     17c:	4011      	ands	r1, r2
     17e:	22c0      	movs	r2, #192	; 0xc0
     180:	00d2      	lsls	r2, r2, #3
     182:	430a      	orrs	r2, r1
     184:	809a      	strh	r2, [r3, #4]
	ADC->CTRLB.bit.RESSEL = 0x00; // 12-bit resolution
     186:	889a      	ldrh	r2, [r3, #4]
     188:	2130      	movs	r1, #48	; 0x30
     18a:	438a      	bics	r2, r1
     18c:	809a      	strh	r2, [r3, #4]
	ADC->CTRLB.bit.FREERUN = 1;
     18e:	889a      	ldrh	r2, [r3, #4]
     190:	2104      	movs	r1, #4
     192:	430a      	orrs	r2, r1
     194:	809a      	strh	r2, [r3, #4]
	ADC->CTRLB.bit.CORREN = 0;
     196:	889a      	ldrh	r2, [r3, #4]
     198:	2108      	movs	r1, #8
     19a:	438a      	bics	r2, r1
     19c:	809a      	strh	r2, [r3, #4]
	while (ADC->STATUS.bit.SYNCBUSY);
     19e:	001a      	movs	r2, r3
     1a0:	7e53      	ldrb	r3, [r2, #25]
     1a2:	09db      	lsrs	r3, r3, #7
     1a4:	d1fc      	bne.n	1a0 <adc_init+0x8c>
	
	// Set gain and mux selection
	ADC->INPUTCTRL.bit.GAIN = 0xF; // 0.5 * gain
     1a6:	4b17      	ldr	r3, [pc, #92]	; (204 <adc_init+0xf0>)
     1a8:	6919      	ldr	r1, [r3, #16]
     1aa:	22f0      	movs	r2, #240	; 0xf0
     1ac:	0512      	lsls	r2, r2, #20
     1ae:	430a      	orrs	r2, r1
     1b0:	611a      	str	r2, [r3, #16]
	ADC->INPUTCTRL.bit.MUXNEG = 0x18; // GND
     1b2:	691a      	ldr	r2, [r3, #16]
     1b4:	4915      	ldr	r1, [pc, #84]	; (20c <adc_init+0xf8>)
     1b6:	4011      	ands	r1, r2
     1b8:	22c0      	movs	r2, #192	; 0xc0
     1ba:	0152      	lsls	r2, r2, #5
     1bc:	430a      	orrs	r2, r1
     1be:	611a      	str	r2, [r3, #16]
	ADC->INPUTCTRL.bit.MUXPOS = 0x02; // Joystick (y-direction)
     1c0:	691a      	ldr	r2, [r3, #16]
     1c2:	211f      	movs	r1, #31
     1c4:	438a      	bics	r2, r1
     1c6:	391d      	subs	r1, #29
     1c8:	430a      	orrs	r2, r1
     1ca:	611a      	str	r2, [r3, #16]
	while (ADC->STATUS.bit.SYNCBUSY);
     1cc:	001a      	movs	r2, r3
     1ce:	7e53      	ldrb	r3, [r2, #25]
     1d0:	09db      	lsrs	r3, r3, #7
     1d2:	d1fc      	bne.n	1ce <adc_init+0xba>
 */
__STATIC_INLINE void __NVIC_EnableIRQ(IRQn_Type IRQn)
{
  if ((int32_t)(IRQn) >= 0)
  {
    NVIC->ISER[0U] = (uint32_t)(1UL << (((uint32_t)IRQn) & 0x1FUL));
     1d4:	2280      	movs	r2, #128	; 0x80
     1d6:	0412      	lsls	r2, r2, #16
     1d8:	4b0d      	ldr	r3, [pc, #52]	; (210 <adc_init+0xfc>)
     1da:	601a      	str	r2, [r3, #0]
	
	// Enable interrupts
	NVIC_EnableIRQ(ADC_IRQn);
	
	// Enable ADC
	ADC->CTRLA.bit.ENABLE = 1;
     1dc:	4b09      	ldr	r3, [pc, #36]	; (204 <adc_init+0xf0>)
     1de:	7819      	ldrb	r1, [r3, #0]
     1e0:	2002      	movs	r0, #2
     1e2:	4301      	orrs	r1, r0
     1e4:	7019      	strb	r1, [r3, #0]
	
	// Start first conversion
	ADC->SWTRIG.bit.START = 1;
     1e6:	7b1a      	ldrb	r2, [r3, #12]
     1e8:	4302      	orrs	r2, r0
     1ea:	731a      	strb	r2, [r3, #12]
	while (ADC->STATUS.bit.SYNCBUSY);
     1ec:	001a      	movs	r2, r3
     1ee:	7e53      	ldrb	r3, [r2, #25]
     1f0:	09db      	lsrs	r3, r3, #7
     1f2:	d1fc      	bne.n	1ee <adc_init+0xda>
	
}
     1f4:	4770      	bx	lr
     1f6:	46c0      	nop			; (mov r8, r8)
     1f8:	40000400 	.word	0x40000400
     1fc:	0000401e 	.word	0x0000401e
     200:	40000c00 	.word	0x40000c00
     204:	42004000 	.word	0x42004000
     208:	fffff8ff 	.word	0xfffff8ff
     20c:	ffffe0ff 	.word	0xffffe0ff
     210:	e000e100 	.word	0xe000e100

00000214 <adc_get>:

//==============================================================================
uint16_t adc_get()
{
	while (ADC->STATUS.bit.SYNCBUSY);
     214:	4a03      	ldr	r2, [pc, #12]	; (224 <adc_get+0x10>)
     216:	7e53      	ldrb	r3, [r2, #25]
     218:	09db      	lsrs	r3, r3, #7
     21a:	d1fc      	bne.n	216 <adc_get+0x2>
	return ADC->RESULT.bit.RESULT;
     21c:	4b01      	ldr	r3, [pc, #4]	; (224 <adc_get+0x10>)
     21e:	8b58      	ldrh	r0, [r3, #26]
     220:	b280      	uxth	r0, r0
}
     222:	4770      	bx	lr
     224:	42004000 	.word	0x42004000

00000228 <adc_get_Y>:
  \details Disables IRQ interrupts by setting the I-bit in the CPSR.
           Can only be executed in Privileged modes.
 */
__STATIC_FORCEINLINE void __disable_irq(void)
{
  __ASM volatile ("cpsid i" : : : "memory");
     228:	b672      	cpsid	i
int16_t adc_get_Y()
{
	int16_t result;
	// Atomic block
	__disable_irq();
	result = 2048 - y_val;
     22a:	4b04      	ldr	r3, [pc, #16]	; (23c <adc_get_Y+0x14>)
     22c:	881b      	ldrh	r3, [r3, #0]
     22e:	b29b      	uxth	r3, r3
  __ASM volatile ("cpsie i" : : : "memory");
     230:	b662      	cpsie	i
     232:	2080      	movs	r0, #128	; 0x80
     234:	0100      	lsls	r0, r0, #4
     236:	1ac0      	subs	r0, r0, r3
	__enable_irq();
	return result;
     238:	b200      	sxth	r0, r0
}
     23a:	4770      	bx	lr
     23c:	20000450 	.word	0x20000450

00000240 <adc_get_X>:
  __ASM volatile ("cpsid i" : : : "memory");
     240:	b672      	cpsid	i
int16_t adc_get_X()
{
	int16_t result;
	// Atomic block
	__disable_irq();
	result = 2048 - x_val;
     242:	4b04      	ldr	r3, [pc, #16]	; (254 <adc_get_X+0x14>)
     244:	885b      	ldrh	r3, [r3, #2]
     246:	b29b      	uxth	r3, r3
  __ASM volatile ("cpsie i" : : : "memory");
     248:	b662      	cpsie	i
     24a:	2080      	movs	r0, #128	; 0x80
     24c:	0100      	lsls	r0, r0, #4
     24e:	1ac0      	subs	r0, r0, r3
	__enable_irq();
	return result;
     250:	b200      	sxth	r0, r0
}
     252:	4770      	bx	lr
     254:	20000450 	.word	0x20000450

00000258 <adc_reset>:

//==============================================================================

void adc_reset()
{
	ADC->CTRLB.bit.FREERUN = 1; // enable freerun mode
     258:	4b07      	ldr	r3, [pc, #28]	; (278 <adc_reset+0x20>)
     25a:	889a      	ldrh	r2, [r3, #4]
     25c:	2104      	movs	r1, #4
     25e:	430a      	orrs	r2, r1
     260:	809a      	strh	r2, [r3, #4]
	ADC->INTENCLR.bit.RESRDY = 1; // disable interrupt
     262:	7d9a      	ldrb	r2, [r3, #22]
     264:	2101      	movs	r1, #1
     266:	430a      	orrs	r2, r1
     268:	759a      	strb	r2, [r3, #22]
	ADC->INPUTCTRL.bit.MUXPOS = 0x02; // select joystick y dir
     26a:	691a      	ldr	r2, [r3, #16]
     26c:	211f      	movs	r1, #31
     26e:	438a      	bics	r2, r1
     270:	391d      	subs	r1, #29
     272:	430a      	orrs	r2, r1
     274:	611a      	str	r2, [r3, #16]
}
     276:	4770      	bx	lr
     278:	42004000 	.word	0x42004000

0000027c <adc_interruptSet>:

//==============================================================================

void adc_interruptSet()
{
	ADC->CTRLB.bit.FREERUN = 0; // disable freerun mode
     27c:	4b09      	ldr	r3, [pc, #36]	; (2a4 <adc_interruptSet+0x28>)
     27e:	889a      	ldrh	r2, [r3, #4]
     280:	2104      	movs	r1, #4
     282:	438a      	bics	r2, r1
     284:	809a      	strh	r2, [r3, #4]
	ADC->INTENSET.bit.RESRDY = 1; // enable interrupts
     286:	7dda      	ldrb	r2, [r3, #23]
     288:	2101      	movs	r1, #1
     28a:	430a      	orrs	r2, r1
     28c:	75da      	strb	r2, [r3, #23]
	dir = Y;
     28e:	2100      	movs	r1, #0
     290:	4a05      	ldr	r2, [pc, #20]	; (2a8 <adc_interruptSet+0x2c>)
     292:	7111      	strb	r1, [r2, #4]
	ADC->INPUTCTRL.bit.MUXPOS = 0x02; // select joystick y dir
     294:	691a      	ldr	r2, [r3, #16]
     296:	311f      	adds	r1, #31
     298:	438a      	bics	r2, r1
     29a:	391d      	subs	r1, #29
     29c:	430a      	orrs	r2, r1
     29e:	611a      	str	r2, [r3, #16]
}
     2a0:	4770      	bx	lr
     2a2:	46c0      	nop			; (mov r8, r8)
     2a4:	42004000 	.word	0x42004000
     2a8:	20000450 	.word	0x20000450

000002ac <ADC_Handler>:
//     | .__/ |  \  .__/
//
//------------------------------------------------------------------------------
void ADC_Handler(void)
{
	if (ADC->INTFLAG.bit.RESRDY)
     2ac:	4b16      	ldr	r3, [pc, #88]	; (308 <ADC_Handler+0x5c>)
     2ae:	7e1b      	ldrb	r3, [r3, #24]
     2b0:	07db      	lsls	r3, r3, #31
     2b2:	d516      	bpl.n	2e2 <ADC_Handler+0x36>
	{
		ADC->INTFLAG.reg = ADC_INTFLAG_RESRDY; // clear flag
     2b4:	2201      	movs	r2, #1
     2b6:	4b14      	ldr	r3, [pc, #80]	; (308 <ADC_Handler+0x5c>)
     2b8:	761a      	strb	r2, [r3, #24]
		if (dir == Y)
     2ba:	4b14      	ldr	r3, [pc, #80]	; (30c <ADC_Handler+0x60>)
     2bc:	791b      	ldrb	r3, [r3, #4]
     2be:	2b00      	cmp	r3, #0
     2c0:	d110      	bne.n	2e4 <ADC_Handler+0x38>
		{
			y_val = ADC->RESULT.reg; // store result
     2c2:	4b11      	ldr	r3, [pc, #68]	; (308 <ADC_Handler+0x5c>)
     2c4:	8b5a      	ldrh	r2, [r3, #26]
     2c6:	b292      	uxth	r2, r2
     2c8:	4910      	ldr	r1, [pc, #64]	; (30c <ADC_Handler+0x60>)
     2ca:	800a      	strh	r2, [r1, #0]
			ADC->INPUTCTRL.bit.MUXPOS = 0x00; // Set ADC to read x dir
     2cc:	691a      	ldr	r2, [r3, #16]
     2ce:	201f      	movs	r0, #31
     2d0:	4382      	bics	r2, r0
     2d2:	611a      	str	r2, [r3, #16]
			dir = X; // switch state
     2d4:	2301      	movs	r3, #1
     2d6:	710b      	strb	r3, [r1, #4]
		{
			x_val = ADC->RESULT.reg; // store result
			ADC->INPUTCTRL.bit.MUXPOS = 0x02; // Set ADC to read y dir
			dir = Y; // switch state
		}
		ADC->SWTRIG.bit.START = 1; // Start next conversion
     2d8:	4a0b      	ldr	r2, [pc, #44]	; (308 <ADC_Handler+0x5c>)
     2da:	7b13      	ldrb	r3, [r2, #12]
     2dc:	2102      	movs	r1, #2
     2de:	430b      	orrs	r3, r1
     2e0:	7313      	strb	r3, [r2, #12]
	}
     2e2:	4770      	bx	lr
		else if (dir == X)
     2e4:	4b09      	ldr	r3, [pc, #36]	; (30c <ADC_Handler+0x60>)
     2e6:	791b      	ldrb	r3, [r3, #4]
     2e8:	2b01      	cmp	r3, #1
     2ea:	d1f5      	bne.n	2d8 <ADC_Handler+0x2c>
			x_val = ADC->RESULT.reg; // store result
     2ec:	4a06      	ldr	r2, [pc, #24]	; (308 <ADC_Handler+0x5c>)
     2ee:	8b53      	ldrh	r3, [r2, #26]
     2f0:	b29b      	uxth	r3, r3
     2f2:	4906      	ldr	r1, [pc, #24]	; (30c <ADC_Handler+0x60>)
     2f4:	804b      	strh	r3, [r1, #2]
			ADC->INPUTCTRL.bit.MUXPOS = 0x02; // Set ADC to read y dir
     2f6:	6913      	ldr	r3, [r2, #16]
     2f8:	201f      	movs	r0, #31
     2fa:	4383      	bics	r3, r0
     2fc:	381d      	subs	r0, #29
     2fe:	4303      	orrs	r3, r0
     300:	6113      	str	r3, [r2, #16]
			dir = Y; // switch state
     302:	2300      	movs	r3, #0
     304:	710b      	strb	r3, [r1, #4]
     306:	e7e7      	b.n	2d8 <ADC_Handler+0x2c>
     308:	42004000 	.word	0x42004000
     30c:	20000450 	.word	0x20000450

00000310 <buttons_init>:

//=============================================================================
void buttons_init(void)
{
  // Turn on the input enables for button bits and button active bit
  PORT->Group[BTN_0_GROUP].PINCFG[BTN_0_PIN].bit.INEN = 1;
     310:	4b0b      	ldr	r3, [pc, #44]	; (340 <buttons_init+0x30>)
     312:	20c9      	movs	r0, #201	; 0xc9
     314:	5c1a      	ldrb	r2, [r3, r0]
     316:	2102      	movs	r1, #2
     318:	430a      	orrs	r2, r1
     31a:	541a      	strb	r2, [r3, r0]
  PORT->Group[BTN_1_GROUP].PINCFG[BTN_1_PIN].bit.INEN = 1;
     31c:	3885      	subs	r0, #133	; 0x85
     31e:	5c1a      	ldrb	r2, [r3, r0]
     320:	430a      	orrs	r2, r1
     322:	541a      	strb	r2, [r3, r0]
  PORT->Group[BTN_ACTIVE_GROUP].PINCFG[BTN_ACTIVE_PIN].bit.INEN = 1;
     324:	3004      	adds	r0, #4
     326:	5c1a      	ldrb	r2, [r3, r0]
     328:	430a      	orrs	r2, r1
     32a:	541a      	strb	r2, [r3, r0]
  
  // Make sure the directions regs are configured as inputs
  PORT->Group[BTN_0_GROUP].DIRCLR.reg = BTN_0;
     32c:	2180      	movs	r1, #128	; 0x80
     32e:	0089      	lsls	r1, r1, #2
     330:	2284      	movs	r2, #132	; 0x84
     332:	5099      	str	r1, [r3, r2]
  PORT->Group[BTN_1_GROUP].DIRCLR.reg = BTN_1;
     334:	3a74      	subs	r2, #116	; 0x74
     336:	605a      	str	r2, [r3, #4]
  PORT->Group[BTN_ACTIVE_GROUP].DIRCLR.reg = BTN_ACTIVE;
     338:	32f0      	adds	r2, #240	; 0xf0
     33a:	605a      	str	r2, [r3, #4]
}
     33c:	4770      	bx	lr
     33e:	46c0      	nop			; (mov r8, r8)
     340:	41004400 	.word	0x41004400

00000344 <buttons_get>:
// Button 1 - {BTN_1, BTN_0} = 01
// Button 2 - {BTN_1, BTN_0} = 10
// Button 3 - {BTN_1, BTN_0} = 11
//==============================================================================
bool buttons_get(uint8_t button)
{
     344:	0001      	movs	r1, r0
  bool retval = false;
  uint8_t button_value = 0;
  
  // Set button_value to encoded button value
  if ((PORT->Group[BTN_0_GROUP].IN.reg) & (BTN_0))
     346:	4a13      	ldr	r2, [pc, #76]	; (394 <buttons_get+0x50>)
     348:	23a0      	movs	r3, #160	; 0xa0
     34a:	58d3      	ldr	r3, [r2, r3]
     34c:	059b      	lsls	r3, r3, #22
  uint8_t button_value = 0;
     34e:	0fdb      	lsrs	r3, r3, #31
  {
	  button_value = 1;
  }
  if ((PORT->Group[BTN_1_GROUP].IN.reg) & (BTN_1))
     350:	6a12      	ldr	r2, [r2, #32]
     352:	06d2      	lsls	r2, r2, #27
     354:	d500      	bpl.n	358 <buttons_get+0x14>
  {
	  button_value = button_value + 2;
     356:	3302      	adds	r3, #2
  }
  
  if ((PORT->Group[BTN_ACTIVE_GROUP].IN.reg) & (BTN_ACTIVE)) // if button is active
     358:	4a0e      	ldr	r2, [pc, #56]	; (394 <buttons_get+0x50>)
     35a:	6a12      	ldr	r2, [r2, #32]
  bool retval = false;
     35c:	2000      	movs	r0, #0
  if ((PORT->Group[BTN_ACTIVE_GROUP].IN.reg) & (BTN_ACTIVE)) // if button is active
     35e:	05d2      	lsls	r2, r2, #23
     360:	d504      	bpl.n	36c <buttons_get+0x28>
      {
	  if (button == 0) // Button 0
     362:	2900      	cmp	r1, #0
     364:	d103      	bne.n	36e <buttons_get+0x2a>
	    {
	      if (button_value == 0) 
     366:	4258      	negs	r0, r3
     368:	4143      	adcs	r3, r0
     36a:	b2d8      	uxtb	r0, r3
	  		  retval = true;
	  	  }
	  	  
	   }
  return retval;
}
     36c:	4770      	bx	lr
	    else if (button == 1) // Button 1
     36e:	2901      	cmp	r1, #1
     370:	d006      	beq.n	380 <buttons_get+0x3c>
	    else if (button == 2) // Button 2
     372:	2902      	cmp	r1, #2
     374:	d009      	beq.n	38a <buttons_get+0x46>
	  	  if (button_value == 3)
     376:	3b03      	subs	r3, #3
     378:	4258      	negs	r0, r3
     37a:	4143      	adcs	r3, r0
     37c:	b2d8      	uxtb	r0, r3
     37e:	e7f5      	b.n	36c <buttons_get+0x28>
	      if (button_value == 1)  
     380:	3b01      	subs	r3, #1
     382:	4258      	negs	r0, r3
     384:	4143      	adcs	r3, r0
     386:	b2d8      	uxtb	r0, r3
     388:	e7f0      	b.n	36c <buttons_get+0x28>
	  	  if (button_value == 2)
     38a:	3b02      	subs	r3, #2
     38c:	4258      	negs	r0, r3
     38e:	4143      	adcs	r3, r0
     390:	b2d8      	uxtb	r0, r3
     392:	e7eb      	b.n	36c <buttons_get+0x28>
     394:	41004400 	.word	0x41004400

00000398 <counter_enable>:
}

//============================================================================
void counter_enable()
{
	TC3->COUNT8.CTRLA.bit.ENABLE = 1;
     398:	4a04      	ldr	r2, [pc, #16]	; (3ac <counter_enable+0x14>)
     39a:	8813      	ldrh	r3, [r2, #0]
     39c:	2102      	movs	r1, #2
     39e:	430b      	orrs	r3, r1
     3a0:	8013      	strh	r3, [r2, #0]
	while (TC3->COUNT8.STATUS.bit.SYNCBUSY);
     3a2:	7bd3      	ldrb	r3, [r2, #15]
     3a4:	09db      	lsrs	r3, r3, #7
     3a6:	d1fc      	bne.n	3a2 <counter_enable+0xa>

}
     3a8:	4770      	bx	lr
     3aa:	46c0      	nop			; (mov r8, r8)
     3ac:	42002c00 	.word	0x42002c00

000003b0 <counter_disable>:

//============================================================================
void counter_disable()
{
	TC3->COUNT8.CTRLA.bit.ENABLE = 0;
     3b0:	4a04      	ldr	r2, [pc, #16]	; (3c4 <counter_disable+0x14>)
     3b2:	8813      	ldrh	r3, [r2, #0]
     3b4:	2102      	movs	r1, #2
     3b6:	438b      	bics	r3, r1
     3b8:	8013      	strh	r3, [r2, #0]
	while (TC3->COUNT8.STATUS.bit.SYNCBUSY);
     3ba:	7bd3      	ldrb	r3, [r2, #15]
     3bc:	09db      	lsrs	r3, r3, #7
     3be:	d1fc      	bne.n	3ba <counter_disable+0xa>
}
     3c0:	4770      	bx	lr
     3c2:	46c0      	nop			; (mov r8, r8)
     3c4:	42002c00 	.word	0x42002c00

000003c8 <counter_init>:
{
     3c8:	b510      	push	{r4, lr}
	PM->APBCMASK.bit.TC3_ = 1;
     3ca:	4a1f      	ldr	r2, [pc, #124]	; (448 <counter_init+0x80>)
     3cc:	6a11      	ldr	r1, [r2, #32]
     3ce:	2380      	movs	r3, #128	; 0x80
     3d0:	011b      	lsls	r3, r3, #4
     3d2:	430b      	orrs	r3, r1
     3d4:	6213      	str	r3, [r2, #32]
	PORT->Group[0].DIRSET.reg = (1 << 7);
     3d6:	4b1d      	ldr	r3, [pc, #116]	; (44c <counter_init+0x84>)
     3d8:	2280      	movs	r2, #128	; 0x80
     3da:	609a      	str	r2, [r3, #8]
	PORT->Group[0].DIRSET.reg = (1 << 14);
     3dc:	2280      	movs	r2, #128	; 0x80
     3de:	01d2      	lsls	r2, r2, #7
     3e0:	609a      	str	r2, [r3, #8]
	GCLK->CLKCTRL.reg = GCLK_CLKCTRL_ID(GCLK_CLKCTRL_ID_TCC2_TC3) |
     3e2:	4a1b      	ldr	r2, [pc, #108]	; (450 <counter_init+0x88>)
     3e4:	4b1b      	ldr	r3, [pc, #108]	; (454 <counter_init+0x8c>)
     3e6:	805a      	strh	r2, [r3, #2]
	while(GCLK->STATUS.reg & GCLK_STATUS_SYNCBUSY);
     3e8:	001a      	movs	r2, r3
     3ea:	7853      	ldrb	r3, [r2, #1]
     3ec:	b25b      	sxtb	r3, r3
     3ee:	2b00      	cmp	r3, #0
     3f0:	dbfb      	blt.n	3ea <counter_init+0x22>
	counter_disable();
     3f2:	4b19      	ldr	r3, [pc, #100]	; (458 <counter_init+0x90>)
     3f4:	4798      	blx	r3
	TC3->COUNT16.CTRLA.bit.SWRST = 1; // reset counter
     3f6:	4a19      	ldr	r2, [pc, #100]	; (45c <counter_init+0x94>)
     3f8:	8813      	ldrh	r3, [r2, #0]
     3fa:	2101      	movs	r1, #1
     3fc:	430b      	orrs	r3, r1
     3fe:	8013      	strh	r3, [r2, #0]
	while (TC3->COUNT16.CTRLA.bit.SWRST || TC3->COUNT16.STATUS.bit.SYNCBUSY);
     400:	8813      	ldrh	r3, [r2, #0]
     402:	07db      	lsls	r3, r3, #31
     404:	d4fc      	bmi.n	400 <counter_init+0x38>
     406:	7bd3      	ldrb	r3, [r2, #15]
     408:	09db      	lsrs	r3, r3, #7
     40a:	d1f9      	bne.n	400 <counter_init+0x38>
	TC3->COUNT16.CTRLA.bit.MODE = TC_CTRLA_MODE_COUNT16_Val;
     40c:	4b13      	ldr	r3, [pc, #76]	; (45c <counter_init+0x94>)
     40e:	881a      	ldrh	r2, [r3, #0]
     410:	210c      	movs	r1, #12
     412:	438a      	bics	r2, r1
     414:	801a      	strh	r2, [r3, #0]
	TC3->COUNT16.CTRLA.bit.WAVEGEN = TC_CTRLA_WAVEGEN_MFRQ_Val;
     416:	881a      	ldrh	r2, [r3, #0]
     418:	3154      	adds	r1, #84	; 0x54
     41a:	438a      	bics	r2, r1
     41c:	2120      	movs	r1, #32
     41e:	430a      	orrs	r2, r1
     420:	801a      	strh	r2, [r3, #0]
	TC3->COUNT16.CC[0].reg = 150;
     422:	2296      	movs	r2, #150	; 0x96
     424:	831a      	strh	r2, [r3, #24]
	TC3->COUNT16.EVCTRL.bit.EVACT = TC_EVCTRL_EVACT_COUNT_Val;
     426:	895a      	ldrh	r2, [r3, #10]
     428:	2007      	movs	r0, #7
     42a:	4382      	bics	r2, r0
     42c:	2002      	movs	r0, #2
     42e:	4302      	orrs	r2, r0
     430:	815a      	strh	r2, [r3, #10]
	TC3->COUNT16.EVCTRL.bit.TCEI = 1;
     432:	895a      	ldrh	r2, [r3, #10]
     434:	430a      	orrs	r2, r1
     436:	815a      	strh	r2, [r3, #10]
	TC3->COUNT16.INTENSET.reg = TC_INTENSET_OVF;  // Enable overflow interrupt
     438:	2201      	movs	r2, #1
     43a:	735a      	strb	r2, [r3, #13]
     43c:	2280      	movs	r2, #128	; 0x80
     43e:	02d2      	lsls	r2, r2, #11
     440:	4b07      	ldr	r3, [pc, #28]	; (460 <counter_init+0x98>)
     442:	601a      	str	r2, [r3, #0]
}
     444:	bd10      	pop	{r4, pc}
     446:	46c0      	nop			; (mov r8, r8)
     448:	40000400 	.word	0x40000400
     44c:	41004400 	.word	0x41004400
     450:	0000401b 	.word	0x0000401b
     454:	40000c00 	.word	0x40000c00
     458:	000003b1 	.word	0x000003b1
     45c:	42002c00 	.word	0x42002c00
     460:	e000e100 	.word	0xe000e100

00000464 <counter_flagGet>:

//============================================================================

uint8_t counter_flagGet()
{
	return flag;
     464:	4b01      	ldr	r3, [pc, #4]	; (46c <counter_flagGet+0x8>)
     466:	7818      	ldrb	r0, [r3, #0]
     468:	b2c0      	uxtb	r0, r0
}
     46a:	4770      	bx	lr
     46c:	20000455 	.word	0x20000455

00000470 <counter_flagSet>:
  __ASM volatile ("cpsid i" : : : "memory");
     470:	b672      	cpsid	i
//============================================================================

void counter_flagSet(uint8_t value)
{
	__disable_irq();
	flag = value;
     472:	4b02      	ldr	r3, [pc, #8]	; (47c <counter_flagSet+0xc>)
     474:	7018      	strb	r0, [r3, #0]
  __ASM volatile ("cpsie i" : : : "memory");
     476:	b662      	cpsie	i
	__enable_irq();
}
     478:	4770      	bx	lr
     47a:	46c0      	nop			; (mov r8, r8)
     47c:	20000455 	.word	0x20000455

00000480 <TC3_Handler>:
//     | /__` |__)  /__`   
//     | .__/ |  \  .__/
//
//------------------------------------------------------------------------------
void TC3_Handler(void)
{
     480:	b510      	push	{r4, lr}
	if (TC3->COUNT16.INTFLAG.bit.OVF)
     482:	4b0d      	ldr	r3, [pc, #52]	; (4b8 <TC3_Handler+0x38>)
     484:	7b9b      	ldrb	r3, [r3, #14]
     486:	07db      	lsls	r3, r3, #31
     488:	d400      	bmi.n	48c <TC3_Handler+0xc>
		}
		// Blank off
		PORT->Group[0].OUTCLR.reg = (1 << 07);
		counter_flagSet(1);
	}
     48a:	bd10      	pop	{r4, pc}
		TC3->COUNT16.INTFLAG.reg = TC_INTFLAG_OVF;  // Clear interrupt flag
     48c:	2201      	movs	r2, #1
     48e:	4b0a      	ldr	r3, [pc, #40]	; (4b8 <TC3_Handler+0x38>)
     490:	739a      	strb	r2, [r3, #14]
		PORT->Group[0].OUTSET.reg = (1 << 07);
     492:	327f      	adds	r2, #127	; 0x7f
     494:	4b09      	ldr	r3, [pc, #36]	; (4bc <TC3_Handler+0x3c>)
     496:	619a      	str	r2, [r3, #24]
		if (spi_write_completed())
     498:	4b09      	ldr	r3, [pc, #36]	; (4c0 <TC3_Handler+0x40>)
     49a:	4798      	blx	r3
     49c:	2800      	cmp	r0, #0
     49e:	d004      	beq.n	4aa <TC3_Handler+0x2a>
			PORT->Group[0].OUTSET.reg = (1 << 14);
     4a0:	4b06      	ldr	r3, [pc, #24]	; (4bc <TC3_Handler+0x3c>)
     4a2:	2280      	movs	r2, #128	; 0x80
     4a4:	01d2      	lsls	r2, r2, #7
     4a6:	619a      	str	r2, [r3, #24]
			PORT->Group[0].OUTCLR.reg = (1 << 14);
     4a8:	615a      	str	r2, [r3, #20]
		PORT->Group[0].OUTCLR.reg = (1 << 07);
     4aa:	2280      	movs	r2, #128	; 0x80
     4ac:	4b03      	ldr	r3, [pc, #12]	; (4bc <TC3_Handler+0x3c>)
     4ae:	615a      	str	r2, [r3, #20]
		counter_flagSet(1);
     4b0:	2001      	movs	r0, #1
     4b2:	4b04      	ldr	r3, [pc, #16]	; (4c4 <TC3_Handler+0x44>)
     4b4:	4798      	blx	r3
     4b6:	e7e8      	b.n	48a <TC3_Handler+0xa>
     4b8:	42002c00 	.word	0x42002c00
     4bc:	41004400 	.word	0x41004400
     4c0:	00000edd 	.word	0x00000edd
     4c4:	00000471 	.word	0x00000471

000004c8 <Dummy_Handler>:

/**
 * \brief Default interrupt handler for unused IRQs.
 */
void Dummy_Handler(void)
{
     4c8:	e7fe      	b.n	4c8 <Dummy_Handler>
	...

000004cc <Reset_Handler>:
{
     4cc:	b5f8      	push	{r3, r4, r5, r6, r7, lr}
        if (pSrc != pDest) {
     4ce:	4a2a      	ldr	r2, [pc, #168]	; (578 <Reset_Handler+0xac>)
     4d0:	4b2a      	ldr	r3, [pc, #168]	; (57c <Reset_Handler+0xb0>)
     4d2:	429a      	cmp	r2, r3
     4d4:	d011      	beq.n	4fa <Reset_Handler+0x2e>
                for (; pDest < &_erelocate;) {
     4d6:	001a      	movs	r2, r3
     4d8:	4b29      	ldr	r3, [pc, #164]	; (580 <Reset_Handler+0xb4>)
     4da:	429a      	cmp	r2, r3
     4dc:	d20d      	bcs.n	4fa <Reset_Handler+0x2e>
     4de:	4a29      	ldr	r2, [pc, #164]	; (584 <Reset_Handler+0xb8>)
     4e0:	3303      	adds	r3, #3
     4e2:	1a9b      	subs	r3, r3, r2
     4e4:	089b      	lsrs	r3, r3, #2
     4e6:	3301      	adds	r3, #1
     4e8:	009b      	lsls	r3, r3, #2
     4ea:	2200      	movs	r2, #0
                        *pDest++ = *pSrc++;
     4ec:	4823      	ldr	r0, [pc, #140]	; (57c <Reset_Handler+0xb0>)
     4ee:	4922      	ldr	r1, [pc, #136]	; (578 <Reset_Handler+0xac>)
     4f0:	588c      	ldr	r4, [r1, r2]
     4f2:	5084      	str	r4, [r0, r2]
     4f4:	3204      	adds	r2, #4
                for (; pDest < &_erelocate;) {
     4f6:	429a      	cmp	r2, r3
     4f8:	d1fa      	bne.n	4f0 <Reset_Handler+0x24>
        for (pDest = &_szero; pDest < &_ezero;) {
     4fa:	4a23      	ldr	r2, [pc, #140]	; (588 <Reset_Handler+0xbc>)
     4fc:	4b23      	ldr	r3, [pc, #140]	; (58c <Reset_Handler+0xc0>)
     4fe:	429a      	cmp	r2, r3
     500:	d20a      	bcs.n	518 <Reset_Handler+0x4c>
     502:	43d3      	mvns	r3, r2
     504:	4921      	ldr	r1, [pc, #132]	; (58c <Reset_Handler+0xc0>)
     506:	185b      	adds	r3, r3, r1
     508:	2103      	movs	r1, #3
     50a:	438b      	bics	r3, r1
     50c:	3304      	adds	r3, #4
     50e:	189b      	adds	r3, r3, r2
                *pDest++ = 0;
     510:	2100      	movs	r1, #0
     512:	c202      	stmia	r2!, {r1}
        for (pDest = &_szero; pDest < &_ezero;) {
     514:	4293      	cmp	r3, r2
     516:	d1fc      	bne.n	512 <Reset_Handler+0x46>
        SCB->VTOR = ((uint32_t) pSrc & SCB_VTOR_TBLOFF_Msk);
     518:	4a1d      	ldr	r2, [pc, #116]	; (590 <Reset_Handler+0xc4>)
     51a:	21ff      	movs	r1, #255	; 0xff
     51c:	4b1d      	ldr	r3, [pc, #116]	; (594 <Reset_Handler+0xc8>)
     51e:	438b      	bics	r3, r1
     520:	6093      	str	r3, [r2, #8]
        SBMATRIX->SFR[SBMATRIX_SLAVE_HMCRAMC0].reg = 2;
     522:	39fd      	subs	r1, #253	; 0xfd
     524:	2390      	movs	r3, #144	; 0x90
     526:	005b      	lsls	r3, r3, #1
     528:	4a1b      	ldr	r2, [pc, #108]	; (598 <Reset_Handler+0xcc>)
     52a:	50d1      	str	r1, [r2, r3]
        USB->DEVICE.QOSCTRL.bit.CQOS = 2;
     52c:	4a1b      	ldr	r2, [pc, #108]	; (59c <Reset_Handler+0xd0>)
     52e:	78d3      	ldrb	r3, [r2, #3]
     530:	2503      	movs	r5, #3
     532:	43ab      	bics	r3, r5
     534:	2402      	movs	r4, #2
     536:	4323      	orrs	r3, r4
     538:	70d3      	strb	r3, [r2, #3]
        USB->DEVICE.QOSCTRL.bit.DQOS = 2;
     53a:	78d3      	ldrb	r3, [r2, #3]
     53c:	270c      	movs	r7, #12
     53e:	43bb      	bics	r3, r7
     540:	2608      	movs	r6, #8
     542:	4333      	orrs	r3, r6
     544:	70d3      	strb	r3, [r2, #3]
        DMAC->QOSCTRL.bit.DQOS = 2;
     546:	4b16      	ldr	r3, [pc, #88]	; (5a0 <Reset_Handler+0xd4>)
     548:	7b98      	ldrb	r0, [r3, #14]
     54a:	2230      	movs	r2, #48	; 0x30
     54c:	4390      	bics	r0, r2
     54e:	2220      	movs	r2, #32
     550:	4310      	orrs	r0, r2
     552:	7398      	strb	r0, [r3, #14]
        DMAC->QOSCTRL.bit.FQOS = 2;
     554:	7b99      	ldrb	r1, [r3, #14]
     556:	43b9      	bics	r1, r7
     558:	4331      	orrs	r1, r6
     55a:	7399      	strb	r1, [r3, #14]
        DMAC->QOSCTRL.bit.WRBQOS = 2;
     55c:	7b9a      	ldrb	r2, [r3, #14]
     55e:	43aa      	bics	r2, r5
     560:	4322      	orrs	r2, r4
     562:	739a      	strb	r2, [r3, #14]
        NVMCTRL->CTRLB.bit.MANW = 1;
     564:	4a0f      	ldr	r2, [pc, #60]	; (5a4 <Reset_Handler+0xd8>)
     566:	6853      	ldr	r3, [r2, #4]
     568:	2180      	movs	r1, #128	; 0x80
     56a:	430b      	orrs	r3, r1
     56c:	6053      	str	r3, [r2, #4]
        __libc_init_array();
     56e:	4b0e      	ldr	r3, [pc, #56]	; (5a8 <Reset_Handler+0xdc>)
     570:	4798      	blx	r3
        main();
     572:	4b0e      	ldr	r3, [pc, #56]	; (5ac <Reset_Handler+0xe0>)
     574:	4798      	blx	r3
     576:	e7fe      	b.n	576 <Reset_Handler+0xaa>
     578:	00001920 	.word	0x00001920
     57c:	20000000 	.word	0x20000000
     580:	20000434 	.word	0x20000434
     584:	20000004 	.word	0x20000004
     588:	20000434 	.word	0x20000434
     58c:	200004c0 	.word	0x200004c0
     590:	e000ed00 	.word	0xe000ed00
     594:	00000000 	.word	0x00000000
     598:	41007000 	.word	0x41007000
     59c:	41005000 	.word	0x41005000
     5a0:	41004800 	.word	0x41004800
     5a4:	41004000 	.word	0x41004000
     5a8:	00001151 	.word	0x00001151
     5ac:	00000779 	.word	0x00000779

000005b0 <SystemInit>:
     5b0:	4a01      	ldr	r2, [pc, #4]	; (5b8 <SystemInit+0x8>)
     5b2:	4b02      	ldr	r3, [pc, #8]	; (5bc <SystemInit+0xc>)
     5b4:	601a      	str	r2, [r3, #0]
     5b6:	4770      	bx	lr
     5b8:	000f4240 	.word	0x000f4240
     5bc:	20000000 	.word	0x20000000

000005c0 <event_init>:

//==============================================================================
void event_init()
{
	// Enable the bus clock for the Event System
	PM->APBCMASK.bit.EVSYS_ = 1;
     5c0:	4a0b      	ldr	r2, [pc, #44]	; (5f0 <event_init+0x30>)
     5c2:	6a13      	ldr	r3, [r2, #32]
     5c4:	2102      	movs	r1, #2
     5c6:	430b      	orrs	r3, r1
     5c8:	6213      	str	r3, [r2, #32]

	// Configure the General Clock with the 48MHz clk
	GCLK->CLKCTRL.reg = GCLK_CLKCTRL_ID(GCLK_CLKCTRL_ID_EVSYS_0) |
     5ca:	4a0a      	ldr	r2, [pc, #40]	; (5f4 <event_init+0x34>)
     5cc:	4b0a      	ldr	r3, [pc, #40]	; (5f8 <event_init+0x38>)
     5ce:	805a      	strh	r2, [r3, #2]
	GCLK_CLKCTRL_GEN_GCLK0 |
	GCLK_CLKCTRL_CLKEN;
	// Wait for the GCLK to be synchronized
	while(GCLK->STATUS.reg & GCLK_STATUS_SYNCBUSY);
     5d0:	001a      	movs	r2, r3
     5d2:	7853      	ldrb	r3, [r2, #1]
     5d4:	b25b      	sxtb	r3, r3
     5d6:	2b00      	cmp	r3, #0
     5d8:	dbfb      	blt.n	5d2 <event_init+0x12>

	// Reset the event system
	EVSYS->CTRL.bit.SWRST = 1;
     5da:	4b08      	ldr	r3, [pc, #32]	; (5fc <event_init+0x3c>)
     5dc:	781a      	ldrb	r2, [r3, #0]
     5de:	2101      	movs	r1, #1
     5e0:	430a      	orrs	r2, r1
     5e2:	701a      	strb	r2, [r3, #0]
	
	// Use Channel 0 - Note that 1 must be added to the channel in the USER
	// Set up the User as TC3 (0x12)
	EVSYS->USER.reg = EVSYS_USER_CHANNEL(0+1) | EVSYS_USER_USER(0x12);
     5e4:	2289      	movs	r2, #137	; 0x89
     5e6:	0052      	lsls	r2, r2, #1
     5e8:	811a      	strh	r2, [r3, #8]
	
	// Set up the channel generator as TCC0_MCX0 (0x25)
	// The Async and Sync paths both work, but the SINGLE edges don't seem to
	EVSYS->CHANNEL.reg = EVSYS_CHANNEL_CHANNEL(0)         |
     5ea:	4a05      	ldr	r2, [pc, #20]	; (600 <event_init+0x40>)
     5ec:	605a      	str	r2, [r3, #4]
	EVSYS_CHANNEL_EDGSEL_RISING_EDGE |
	EVSYS_CHANNEL_PATH_ASYNCHRONOUS   |
	EVSYS_CHANNEL_EVGEN(0x25);
	
}
     5ee:	4770      	bx	lr
     5f0:	40000400 	.word	0x40000400
     5f4:	00004007 	.word	0x00004007
     5f8:	40000c00 	.word	0x40000c00
     5fc:	42000400 	.word	0x42000400
     600:	06250000 	.word	0x06250000

00000604 <EVSYS_Handler>:
//     | .__/ |  \  .__/
//
//------------------------------------------------------------------------------
void EVSYS_Handler(void) 
{
	if (EVSYS->INTFLAG.bit.EVD0) 
     604:	4b04      	ldr	r3, [pc, #16]	; (618 <EVSYS_Handler+0x14>)
     606:	699b      	ldr	r3, [r3, #24]
     608:	05db      	lsls	r3, r3, #23
     60a:	d503      	bpl.n	614 <EVSYS_Handler+0x10>
	{
		EVSYS->INTFLAG.reg = EVSYS_INTFLAG_EVD0;
     60c:	2280      	movs	r2, #128	; 0x80
     60e:	0052      	lsls	r2, r2, #1
     610:	4b01      	ldr	r3, [pc, #4]	; (618 <EVSYS_Handler+0x14>)
     612:	619a      	str	r2, [r3, #24]
	}
     614:	4770      	bx	lr
     616:	46c0      	nop			; (mov r8, r8)
     618:	42000400 	.word	0x42000400

0000061c <pack12to8>:
     61c:	b5f0      	push	{r4, r5, r6, r7, lr}
     61e:	46ce      	mov	lr, r9
     620:	4647      	mov	r7, r8
     622:	b580      	push	{r7, lr}
     624:	4694      	mov	ip, r2
     626:	2a00      	cmp	r2, #0
     628:	d01e      	beq.n	668 <pack12to8+0x4c>
     62a:	2600      	movs	r6, #0
     62c:	2500      	movs	r5, #0
     62e:	0073      	lsls	r3, r6, #1
     630:	18c4      	adds	r4, r0, r3
     632:	8822      	ldrh	r2, [r4, #0]
     634:	0912      	lsrs	r2, r2, #4
     636:	554a      	strb	r2, [r1, r5]
     638:	1caf      	adds	r7, r5, #2
     63a:	b2bf      	uxth	r7, r7
     63c:	3302      	adds	r3, #2
     63e:	18c3      	adds	r3, r0, r3
     640:	1c6a      	adds	r2, r5, #1
     642:	b292      	uxth	r2, r2
     644:	4691      	mov	r9, r2
     646:	8824      	ldrh	r4, [r4, #0]
     648:	0124      	lsls	r4, r4, #4
     64a:	46a0      	mov	r8, r4
     64c:	881c      	ldrh	r4, [r3, #0]
     64e:	0a24      	lsrs	r4, r4, #8
     650:	4642      	mov	r2, r8
     652:	4314      	orrs	r4, r2
     654:	464a      	mov	r2, r9
     656:	548c      	strb	r4, [r1, r2]
     658:	3503      	adds	r5, #3
     65a:	b2ad      	uxth	r5, r5
     65c:	881b      	ldrh	r3, [r3, #0]
     65e:	55cb      	strb	r3, [r1, r7]
     660:	3602      	adds	r6, #2
     662:	b2b6      	uxth	r6, r6
     664:	45b4      	cmp	ip, r6
     666:	d8e2      	bhi.n	62e <pack12to8+0x12>
     668:	bc0c      	pop	{r2, r3}
     66a:	4690      	mov	r8, r2
     66c:	4699      	mov	r9, r3
     66e:	bdf0      	pop	{r4, r5, r6, r7, pc}

00000670 <led_init>:
     670:	4904      	ldr	r1, [pc, #16]	; (684 <led_init+0x14>)
     672:	680b      	ldr	r3, [r1, #0]
     674:	2280      	movs	r2, #128	; 0x80
     676:	0292      	lsls	r2, r2, #10
     678:	4313      	orrs	r3, r2
     67a:	600b      	str	r3, [r1, #0]
     67c:	4b02      	ldr	r3, [pc, #8]	; (688 <led_init+0x18>)
     67e:	601a      	str	r2, [r3, #0]
     680:	4770      	bx	lr
     682:	46c0      	nop			; (mov r8, r8)
     684:	41004400 	.word	0x41004400
     688:	41004418 	.word	0x41004418

0000068c <led_write>:
     68c:	b510      	push	{r4, lr}
     68e:	2805      	cmp	r0, #5
     690:	d807      	bhi.n	6a2 <led_write+0x16>
     692:	0080      	lsls	r0, r0, #2
     694:	4c10      	ldr	r4, [pc, #64]	; (6d8 <led_write+0x4c>)
     696:	5820      	ldr	r0, [r4, r0]
     698:	4687      	mov	pc, r0
     69a:	4810      	ldr	r0, [pc, #64]	; (6dc <led_write+0x50>)
     69c:	83c1      	strh	r1, [r0, #30]
     69e:	8382      	strh	r2, [r0, #28]
     6a0:	8343      	strh	r3, [r0, #26]
     6a2:	480e      	ldr	r0, [pc, #56]	; (6dc <led_write+0x50>)
     6a4:	0001      	movs	r1, r0
     6a6:	3120      	adds	r1, #32
     6a8:	2210      	movs	r2, #16
     6aa:	4b0d      	ldr	r3, [pc, #52]	; (6e0 <led_write+0x54>)
     6ac:	4798      	blx	r3
     6ae:	bd10      	pop	{r4, pc}
     6b0:	480a      	ldr	r0, [pc, #40]	; (6dc <led_write+0x50>)
     6b2:	8301      	strh	r1, [r0, #24]
     6b4:	82c2      	strh	r2, [r0, #22]
     6b6:	8283      	strh	r3, [r0, #20]
     6b8:	e7f3      	b.n	6a2 <led_write+0x16>
     6ba:	4808      	ldr	r0, [pc, #32]	; (6dc <led_write+0x50>)
     6bc:	8241      	strh	r1, [r0, #18]
     6be:	8202      	strh	r2, [r0, #16]
     6c0:	81c3      	strh	r3, [r0, #14]
     6c2:	e7ee      	b.n	6a2 <led_write+0x16>
     6c4:	4805      	ldr	r0, [pc, #20]	; (6dc <led_write+0x50>)
     6c6:	8181      	strh	r1, [r0, #12]
     6c8:	8142      	strh	r2, [r0, #10]
     6ca:	8103      	strh	r3, [r0, #8]
     6cc:	e7e9      	b.n	6a2 <led_write+0x16>
     6ce:	4803      	ldr	r0, [pc, #12]	; (6dc <led_write+0x50>)
     6d0:	80c1      	strh	r1, [r0, #6]
     6d2:	8082      	strh	r2, [r0, #4]
     6d4:	8043      	strh	r3, [r0, #2]
     6d6:	e7e4      	b.n	6a2 <led_write+0x16>
     6d8:	000012f0 	.word	0x000012f0
     6dc:	20000458 	.word	0x20000458
     6e0:	0000061d 	.word	0x0000061d

000006e4 <led_writeAll>:
     6e4:	b510      	push	{r4, lr}
     6e6:	4b0b      	ldr	r3, [pc, #44]	; (714 <led_writeAll+0x30>)
     6e8:	83d8      	strh	r0, [r3, #30]
     6ea:	8318      	strh	r0, [r3, #24]
     6ec:	8258      	strh	r0, [r3, #18]
     6ee:	8198      	strh	r0, [r3, #12]
     6f0:	80d8      	strh	r0, [r3, #6]
     6f2:	8399      	strh	r1, [r3, #28]
     6f4:	82d9      	strh	r1, [r3, #22]
     6f6:	8219      	strh	r1, [r3, #16]
     6f8:	8159      	strh	r1, [r3, #10]
     6fa:	8099      	strh	r1, [r3, #4]
     6fc:	835a      	strh	r2, [r3, #26]
     6fe:	829a      	strh	r2, [r3, #20]
     700:	81da      	strh	r2, [r3, #14]
     702:	811a      	strh	r2, [r3, #8]
     704:	805a      	strh	r2, [r3, #2]
     706:	0019      	movs	r1, r3
     708:	3120      	adds	r1, #32
     70a:	2210      	movs	r2, #16
     70c:	0018      	movs	r0, r3
     70e:	4b02      	ldr	r3, [pc, #8]	; (718 <led_writeAll+0x34>)
     710:	4798      	blx	r3
     712:	bd10      	pop	{r4, pc}
     714:	20000458 	.word	0x20000458
     718:	0000061d 	.word	0x0000061d

0000071c <calculate_adc>:
//     |    |  \ |  \/  /~~\  |  |___
//
//-----------------------------------------------------------------------------

static uint8_t calculate_adc()
{
     71c:	b510      	push	{r4, lr}
	uint8_t step;
	if (adc_get() < 100) // joystick at max up
     71e:	4b10      	ldr	r3, [pc, #64]	; (760 <calculate_adc+0x44>)
     720:	4798      	blx	r3
	{
		step = 36;
     722:	2324      	movs	r3, #36	; 0x24
	if (adc_get() < 100) // joystick at max up
     724:	2863      	cmp	r0, #99	; 0x63
     726:	d801      	bhi.n	72c <calculate_adc+0x10>
	{
		step = (adc_get() / 4095) * 36;
	}
	
	return step;
}
     728:	0018      	movs	r0, r3
     72a:	bd10      	pop	{r4, pc}
	else if (adc_get() > 3095) // joystick at max down
     72c:	4b0c      	ldr	r3, [pc, #48]	; (760 <calculate_adc+0x44>)
     72e:	4798      	blx	r3
     730:	4a0c      	ldr	r2, [pc, #48]	; (764 <calculate_adc+0x48>)
		step = 1;
     732:	2301      	movs	r3, #1
	else if (adc_get() > 3095) // joystick at max down
     734:	4290      	cmp	r0, r2
     736:	d8f7      	bhi.n	728 <calculate_adc+0xc>
	else if ((adc_get() > 1950) && (adc_get() < 2150))// joystick neutral
     738:	4b09      	ldr	r3, [pc, #36]	; (760 <calculate_adc+0x44>)
     73a:	4798      	blx	r3
     73c:	4b0a      	ldr	r3, [pc, #40]	; (768 <calculate_adc+0x4c>)
     73e:	4298      	cmp	r0, r3
     740:	d905      	bls.n	74e <calculate_adc+0x32>
     742:	4b07      	ldr	r3, [pc, #28]	; (760 <calculate_adc+0x44>)
     744:	4798      	blx	r3
     746:	4a09      	ldr	r2, [pc, #36]	; (76c <calculate_adc+0x50>)
		step = 6;
     748:	2306      	movs	r3, #6
	else if ((adc_get() > 1950) && (adc_get() < 2150))// joystick neutral
     74a:	4290      	cmp	r0, r2
     74c:	d9ec      	bls.n	728 <calculate_adc+0xc>
		step = (adc_get() / 4095) * 36;
     74e:	4b04      	ldr	r3, [pc, #16]	; (760 <calculate_adc+0x44>)
     750:	4798      	blx	r3
     752:	4907      	ldr	r1, [pc, #28]	; (770 <calculate_adc+0x54>)
     754:	4b07      	ldr	r3, [pc, #28]	; (774 <calculate_adc+0x58>)
     756:	4798      	blx	r3
     758:	2324      	movs	r3, #36	; 0x24
     75a:	4343      	muls	r3, r0
     75c:	b2db      	uxtb	r3, r3
     75e:	e7e3      	b.n	728 <calculate_adc+0xc>
     760:	00000215 	.word	0x00000215
     764:	00000c17 	.word	0x00000c17
     768:	0000079e 	.word	0x0000079e
     76c:	00000865 	.word	0x00000865
     770:	00000fff 	.word	0x00000fff
     774:	00001039 	.word	0x00001039

00000778 <main>:
{
     778:	b5f0      	push	{r4, r5, r6, r7, lr}
     77a:	46de      	mov	lr, fp
     77c:	4657      	mov	r7, sl
     77e:	464e      	mov	r6, r9
     780:	4645      	mov	r5, r8
     782:	b5e0      	push	{r5, r6, r7, lr}
     784:	b087      	sub	sp, #28
	SystemInit();
     786:	4bd8      	ldr	r3, [pc, #864]	; (ae8 <main+0x370>)
     788:	4798      	blx	r3
  if ((ticks - 1UL) > SysTick_LOAD_RELOAD_Msk)
  {
    return (1UL);                                                   /* Reload value impossible */
  }

  SysTick->LOAD  = (uint32_t)(ticks - 1UL);                         /* set reload register */
     78a:	4ad8      	ldr	r2, [pc, #864]	; (aec <main+0x374>)
     78c:	4bd8      	ldr	r3, [pc, #864]	; (af0 <main+0x378>)
     78e:	6053      	str	r3, [r2, #4]
    SCB->SHP[_SHP_IDX(IRQn)] = ((uint32_t)(SCB->SHP[_SHP_IDX(IRQn)] & ~(0xFFUL << _BIT_SHIFT(IRQn))) |
     790:	48d8      	ldr	r0, [pc, #864]	; (af4 <main+0x37c>)
     792:	6a03      	ldr	r3, [r0, #32]
     794:	021b      	lsls	r3, r3, #8
     796:	0a1b      	lsrs	r3, r3, #8
     798:	21c0      	movs	r1, #192	; 0xc0
     79a:	0609      	lsls	r1, r1, #24
     79c:	430b      	orrs	r3, r1
     79e:	6203      	str	r3, [r0, #32]
  NVIC_SetPriority (SysTick_IRQn, (1UL << __NVIC_PRIO_BITS) - 1UL); /* set Priority for Systick Interrupt */
  SysTick->VAL   = 0UL;                                             /* Load the SysTick Counter Value */
     7a0:	2300      	movs	r3, #0
     7a2:	6093      	str	r3, [r2, #8]
  SysTick->CTRL  = SysTick_CTRL_CLKSOURCE_Msk |
     7a4:	3307      	adds	r3, #7
     7a6:	6013      	str	r3, [r2, #0]
	led_init();
     7a8:	4bd3      	ldr	r3, [pc, #844]	; (af8 <main+0x380>)
     7aa:	4798      	blx	r3
	timer_init();
     7ac:	4bd3      	ldr	r3, [pc, #844]	; (afc <main+0x384>)
     7ae:	4798      	blx	r3
	counter_init();
     7b0:	4bd3      	ldr	r3, [pc, #844]	; (b00 <main+0x388>)
     7b2:	4798      	blx	r3
	spi_init();
     7b4:	4bd3      	ldr	r3, [pc, #844]	; (b04 <main+0x38c>)
     7b6:	4798      	blx	r3
	event_init();
     7b8:	4bd3      	ldr	r3, [pc, #844]	; (b08 <main+0x390>)
     7ba:	4798      	blx	r3
	buttons_init();
     7bc:	4bd3      	ldr	r3, [pc, #844]	; (b0c <main+0x394>)
     7be:	4798      	blx	r3
	adc_init();
     7c0:	4bd3      	ldr	r3, [pc, #844]	; (b10 <main+0x398>)
     7c2:	4798      	blx	r3
	timer_enable();
     7c4:	4bd3      	ldr	r3, [pc, #844]	; (b14 <main+0x39c>)
     7c6:	4798      	blx	r3
	counter_enable();
     7c8:	4bd3      	ldr	r3, [pc, #844]	; (b18 <main+0x3a0>)
     7ca:	4798      	blx	r3
	adc_reset();
     7cc:	4bd3      	ldr	r3, [pc, #844]	; (b1c <main+0x3a4>)
     7ce:	4798      	blx	r3
	led_writeAll(0, 0, 0);
     7d0:	2200      	movs	r2, #0
     7d2:	2100      	movs	r1, #0
     7d4:	2000      	movs	r0, #0
     7d6:	4bd2      	ldr	r3, [pc, #840]	; (b20 <main+0x3a8>)
     7d8:	4798      	blx	r3
	spi_write();
     7da:	4bd2      	ldr	r3, [pc, #840]	; (b24 <main+0x3ac>)
     7dc:	4798      	blx	r3
	uint32_t old_millis = 0;
     7de:	2600      	movs	r6, #0
			if ((millis - old_millis) > 20)
     7e0:	4bd1      	ldr	r3, [pc, #836]	; (b28 <main+0x3b0>)
     7e2:	4698      	mov	r8, r3
			if (counter_flagGet())
     7e4:	4cd1      	ldr	r4, [pc, #836]	; (b2c <main+0x3b4>)
     7e6:	e008      	b.n	7fa <main+0x82>
			if ((millis - old_millis) > 20) // button debounce
     7e8:	4bcf      	ldr	r3, [pc, #828]	; (b28 <main+0x3b0>)
     7ea:	681b      	ldr	r3, [r3, #0]
     7ec:	1b9b      	subs	r3, r3, r6
     7ee:	2b14      	cmp	r3, #20
     7f0:	d80a      	bhi.n	808 <main+0x90>
			if (counter_flagGet()) // if flag set
     7f2:	4bce      	ldr	r3, [pc, #824]	; (b2c <main+0x3b4>)
     7f4:	4798      	blx	r3
     7f6:	2800      	cmp	r0, #0
     7f8:	d14f      	bne.n	89a <main+0x122>
		while (mode == 0)
     7fa:	4bcb      	ldr	r3, [pc, #812]	; (b28 <main+0x3b0>)
     7fc:	791b      	ldrb	r3, [r3, #4]
     7fe:	2b00      	cmp	r3, #0
     800:	d0f2      	beq.n	7e8 <main+0x70>
		while (mode == 1)
     802:	4fc9      	ldr	r7, [pc, #804]	; (b28 <main+0x3b0>)
				old_millis = millis;
     804:	46bb      	mov	fp, r7
     806:	e136      	b.n	a76 <main+0x2fe>
				old_millis = millis;
     808:	4bc7      	ldr	r3, [pc, #796]	; (b28 <main+0x3b0>)
     80a:	681e      	ldr	r6, [r3, #0]
				if (buttons_get(0)) // if button 0 pressed
     80c:	2000      	movs	r0, #0
     80e:	4bc8      	ldr	r3, [pc, #800]	; (b30 <main+0x3b8>)
     810:	4798      	blx	r3
     812:	2800      	cmp	r0, #0
     814:	d119      	bne.n	84a <main+0xd2>
				if (buttons_get(1)) // if button 1 pressed
     816:	2001      	movs	r0, #1
     818:	4bc5      	ldr	r3, [pc, #788]	; (b30 <main+0x3b8>)
     81a:	4798      	blx	r3
     81c:	2800      	cmp	r0, #0
     81e:	d123      	bne.n	868 <main+0xf0>
				if (buttons_get(2))
     820:	2002      	movs	r0, #2
     822:	4bc3      	ldr	r3, [pc, #780]	; (b30 <main+0x3b8>)
     824:	4798      	blx	r3
     826:	2800      	cmp	r0, #0
     828:	d0e3      	beq.n	7f2 <main+0x7a>
					adc_interruptSet();
     82a:	4bc2      	ldr	r3, [pc, #776]	; (b34 <main+0x3bc>)
     82c:	4798      	blx	r3
					mode = 2;
     82e:	2202      	movs	r2, #2
     830:	4bbd      	ldr	r3, [pc, #756]	; (b28 <main+0x3b0>)
     832:	711a      	strb	r2, [r3, #4]
					led_writeAll(0, 0, 0);
     834:	2200      	movs	r2, #0
     836:	2100      	movs	r1, #0
     838:	2000      	movs	r0, #0
     83a:	4bb9      	ldr	r3, [pc, #740]	; (b20 <main+0x3a8>)
     83c:	4798      	blx	r3
					spi_write();
     83e:	4bb9      	ldr	r3, [pc, #740]	; (b24 <main+0x3ac>)
     840:	4798      	blx	r3
					counter_flagSet(0);
     842:	2000      	movs	r0, #0
     844:	4bbc      	ldr	r3, [pc, #752]	; (b38 <main+0x3c0>)
     846:	4798      	blx	r3
     848:	e7d3      	b.n	7f2 <main+0x7a>
					adc_reset();
     84a:	4bb4      	ldr	r3, [pc, #720]	; (b1c <main+0x3a4>)
     84c:	4798      	blx	r3
					mode = 0; // go to mode 0
     84e:	4db6      	ldr	r5, [pc, #728]	; (b28 <main+0x3b0>)
     850:	2700      	movs	r7, #0
     852:	712f      	strb	r7, [r5, #4]
					color = RED;
     854:	716f      	strb	r7, [r5, #5]
					led_writeAll(0, 0, 0); // turn off LEDs
     856:	2200      	movs	r2, #0
     858:	2100      	movs	r1, #0
     85a:	2000      	movs	r0, #0
     85c:	4bb0      	ldr	r3, [pc, #704]	; (b20 <main+0x3a8>)
     85e:	4798      	blx	r3
					spi_write();
     860:	4bb0      	ldr	r3, [pc, #704]	; (b24 <main+0x3ac>)
     862:	4798      	blx	r3
					index = 0;
     864:	80ef      	strh	r7, [r5, #6]
     866:	e7d6      	b.n	816 <main+0x9e>
					adc_reset();
     868:	4bac      	ldr	r3, [pc, #688]	; (b1c <main+0x3a4>)
     86a:	4798      	blx	r3
					mode = 1; // go to mode 1
     86c:	4dae      	ldr	r5, [pc, #696]	; (b28 <main+0x3b0>)
     86e:	2701      	movs	r7, #1
     870:	712f      	strb	r7, [r5, #4]
					led_writeAll(0, 0, 0); // turn off LEDs
     872:	2200      	movs	r2, #0
     874:	2100      	movs	r1, #0
     876:	2000      	movs	r0, #0
     878:	4ba9      	ldr	r3, [pc, #676]	; (b20 <main+0x3a8>)
     87a:	4798      	blx	r3
					spi_write();
     87c:	4ba9      	ldr	r3, [pc, #676]	; (b24 <main+0x3ac>)
     87e:	4798      	blx	r3
					counter_flagSet(0); // make sure flag is cleared before next spi write
     880:	2000      	movs	r0, #0
     882:	4bad      	ldr	r3, [pc, #692]	; (b38 <main+0x3c0>)
     884:	4798      	blx	r3
					index = 0;
     886:	2300      	movs	r3, #0
     888:	80eb      	strh	r3, [r5, #6]
					state = 0;
     88a:	722b      	strb	r3, [r5, #8]
					led = 1;
     88c:	4bab      	ldr	r3, [pc, #684]	; (b3c <main+0x3c4>)
     88e:	701f      	strb	r7, [r3, #0]
					next_led = 2;
     890:	2202      	movs	r2, #2
     892:	705a      	strb	r2, [r3, #1]
					led_state = 0;
     894:	2300      	movs	r3, #0
     896:	726b      	strb	r3, [r5, #9]
     898:	e7c2      	b.n	820 <main+0xa8>
				counter_flagSet(0); // clear flag
     89a:	2000      	movs	r0, #0
     89c:	4ba6      	ldr	r3, [pc, #664]	; (b38 <main+0x3c0>)
     89e:	4798      	blx	r3
				step = calculate_adc();
     8a0:	4ba7      	ldr	r3, [pc, #668]	; (b40 <main+0x3c8>)
     8a2:	4798      	blx	r3
     8a4:	0005      	movs	r5, r0
				switch (color)
     8a6:	4ba0      	ldr	r3, [pc, #640]	; (b28 <main+0x3b0>)
     8a8:	795a      	ldrb	r2, [r3, #5]
     8aa:	2a05      	cmp	r2, #5
     8ac:	d85c      	bhi.n	968 <main+0x1f0>
     8ae:	0093      	lsls	r3, r2, #2
     8b0:	4aa4      	ldr	r2, [pc, #656]	; (b44 <main+0x3cc>)
     8b2:	58d3      	ldr	r3, [r2, r3]
     8b4:	469f      	mov	pc, r3
					green = fade_up[index];
     8b6:	4b9c      	ldr	r3, [pc, #624]	; (b28 <main+0x3b0>)
     8b8:	88db      	ldrh	r3, [r3, #6]
     8ba:	005b      	lsls	r3, r3, #1
     8bc:	4aa2      	ldr	r2, [pc, #648]	; (b48 <main+0x3d0>)
     8be:	5a9b      	ldrh	r3, [r3, r2]
     8c0:	9303      	str	r3, [sp, #12]
					blue = 0;
     8c2:	2300      	movs	r3, #0
     8c4:	9301      	str	r3, [sp, #4]
					red = 4095;
     8c6:	4ba1      	ldr	r3, [pc, #644]	; (b4c <main+0x3d4>)
     8c8:	9302      	str	r3, [sp, #8]
				led_writeAll(red, green, blue);
     8ca:	9a01      	ldr	r2, [sp, #4]
     8cc:	9903      	ldr	r1, [sp, #12]
     8ce:	9802      	ldr	r0, [sp, #8]
     8d0:	4b93      	ldr	r3, [pc, #588]	; (b20 <main+0x3a8>)
     8d2:	4798      	blx	r3
				spi_write(); // send first spi write
     8d4:	4b93      	ldr	r3, [pc, #588]	; (b24 <main+0x3ac>)
     8d6:	4798      	blx	r3
				index += step; // step thru table
     8d8:	4b93      	ldr	r3, [pc, #588]	; (b28 <main+0x3b0>)
     8da:	88d8      	ldrh	r0, [r3, #6]
     8dc:	1940      	adds	r0, r0, r5
     8de:	b280      	uxth	r0, r0
				if (index >= 360) // if table has been stepped through completely
     8e0:	2368      	movs	r3, #104	; 0x68
     8e2:	33ff      	adds	r3, #255	; 0xff
     8e4:	4298      	cmp	r0, r3
     8e6:	d844      	bhi.n	972 <main+0x1fa>
				index += step; // step thru table
     8e8:	4b8f      	ldr	r3, [pc, #572]	; (b28 <main+0x3b0>)
     8ea:	80d8      	strh	r0, [r3, #6]
     8ec:	e785      	b.n	7fa <main+0x82>
					red = fade_down[index];
     8ee:	4b8e      	ldr	r3, [pc, #568]	; (b28 <main+0x3b0>)
     8f0:	88da      	ldrh	r2, [r3, #6]
     8f2:	0052      	lsls	r2, r2, #1
     8f4:	4b96      	ldr	r3, [pc, #600]	; (b50 <main+0x3d8>)
     8f6:	189b      	adds	r3, r3, r2
     8f8:	2250      	movs	r2, #80	; 0x50
     8fa:	5a9b      	ldrh	r3, [r3, r2]
     8fc:	9302      	str	r3, [sp, #8]
					blue = 0;
     8fe:	2300      	movs	r3, #0
     900:	9301      	str	r3, [sp, #4]
					green = 4095;
     902:	4b92      	ldr	r3, [pc, #584]	; (b4c <main+0x3d4>)
     904:	9303      	str	r3, [sp, #12]
					break;
     906:	e7e0      	b.n	8ca <main+0x152>
					blue = fade_up[index];
     908:	4b87      	ldr	r3, [pc, #540]	; (b28 <main+0x3b0>)
     90a:	88db      	ldrh	r3, [r3, #6]
     90c:	005b      	lsls	r3, r3, #1
     90e:	4a8e      	ldr	r2, [pc, #568]	; (b48 <main+0x3d0>)
     910:	5a9b      	ldrh	r3, [r3, r2]
     912:	9301      	str	r3, [sp, #4]
					green = 4095;
     914:	4b8d      	ldr	r3, [pc, #564]	; (b4c <main+0x3d4>)
     916:	9303      	str	r3, [sp, #12]
					red = 0;
     918:	2300      	movs	r3, #0
     91a:	9302      	str	r3, [sp, #8]
					break;
     91c:	e7d5      	b.n	8ca <main+0x152>
					green = fade_down[index];
     91e:	4b82      	ldr	r3, [pc, #520]	; (b28 <main+0x3b0>)
     920:	88da      	ldrh	r2, [r3, #6]
     922:	0052      	lsls	r2, r2, #1
     924:	4b8a      	ldr	r3, [pc, #552]	; (b50 <main+0x3d8>)
     926:	189b      	adds	r3, r3, r2
     928:	2250      	movs	r2, #80	; 0x50
     92a:	5a9b      	ldrh	r3, [r3, r2]
     92c:	9303      	str	r3, [sp, #12]
					blue = 4095;
     92e:	4b87      	ldr	r3, [pc, #540]	; (b4c <main+0x3d4>)
     930:	9301      	str	r3, [sp, #4]
					red = 0; // fade to blue
     932:	2300      	movs	r3, #0
     934:	9302      	str	r3, [sp, #8]
					break;
     936:	e7c8      	b.n	8ca <main+0x152>
					red = fade_up[index];
     938:	4b7b      	ldr	r3, [pc, #492]	; (b28 <main+0x3b0>)
     93a:	88db      	ldrh	r3, [r3, #6]
     93c:	005b      	lsls	r3, r3, #1
     93e:	4a82      	ldr	r2, [pc, #520]	; (b48 <main+0x3d0>)
     940:	5a9b      	ldrh	r3, [r3, r2]
     942:	9302      	str	r3, [sp, #8]
					blue = 4095;
     944:	4b81      	ldr	r3, [pc, #516]	; (b4c <main+0x3d4>)
     946:	9301      	str	r3, [sp, #4]
					green = 0;
     948:	2300      	movs	r3, #0
     94a:	9303      	str	r3, [sp, #12]
					break;
     94c:	e7bd      	b.n	8ca <main+0x152>
					blue = fade_down[index];
     94e:	4b76      	ldr	r3, [pc, #472]	; (b28 <main+0x3b0>)
     950:	88da      	ldrh	r2, [r3, #6]
     952:	0052      	lsls	r2, r2, #1
     954:	4b7e      	ldr	r3, [pc, #504]	; (b50 <main+0x3d8>)
     956:	189b      	adds	r3, r3, r2
     958:	2250      	movs	r2, #80	; 0x50
     95a:	5a9b      	ldrh	r3, [r3, r2]
     95c:	9301      	str	r3, [sp, #4]
					green = 0;
     95e:	2300      	movs	r3, #0
     960:	9303      	str	r3, [sp, #12]
					red = 4095;
     962:	4b7a      	ldr	r3, [pc, #488]	; (b4c <main+0x3d4>)
     964:	9302      	str	r3, [sp, #8]
					break;
     966:	e7b0      	b.n	8ca <main+0x152>
					blue = 0;
     968:	2300      	movs	r3, #0
     96a:	9301      	str	r3, [sp, #4]
					green = 0;
     96c:	9303      	str	r3, [sp, #12]
					red = 0;
     96e:	9302      	str	r3, [sp, #8]
     970:	e7ab      	b.n	8ca <main+0x152>
					index = 0; // reset index
     972:	4b6d      	ldr	r3, [pc, #436]	; (b28 <main+0x3b0>)
     974:	2200      	movs	r2, #0
     976:	80da      	strh	r2, [r3, #6]
					color += 1; // increment color state
     978:	795b      	ldrb	r3, [r3, #5]
     97a:	3301      	adds	r3, #1
     97c:	b2db      	uxtb	r3, r3
					if (color > 5) // after magenta, go to red
     97e:	2b05      	cmp	r3, #5
     980:	d802      	bhi.n	988 <main+0x210>
					color += 1; // increment color state
     982:	4a69      	ldr	r2, [pc, #420]	; (b28 <main+0x3b0>)
     984:	7153      	strb	r3, [r2, #5]
     986:	e738      	b.n	7fa <main+0x82>
						color = RED;
     988:	2200      	movs	r2, #0
     98a:	4b67      	ldr	r3, [pc, #412]	; (b28 <main+0x3b0>)
     98c:	715a      	strb	r2, [r3, #5]
     98e:	e734      	b.n	7fa <main+0x82>
				old_millis = millis;
     990:	465b      	mov	r3, fp
     992:	681e      	ldr	r6, [r3, #0]
				if (buttons_get(0)) // if button 0 pressed
     994:	2000      	movs	r0, #0
     996:	4b66      	ldr	r3, [pc, #408]	; (b30 <main+0x3b8>)
     998:	4798      	blx	r3
     99a:	2800      	cmp	r0, #0
     99c:	d119      	bne.n	9d2 <main+0x25a>
				if (buttons_get(1)) // if button 1 pressed
     99e:	2001      	movs	r0, #1
     9a0:	4b63      	ldr	r3, [pc, #396]	; (b30 <main+0x3b8>)
     9a2:	4798      	blx	r3
     9a4:	2800      	cmp	r0, #0
     9a6:	d125      	bne.n	9f4 <main+0x27c>
				if (buttons_get(2))
     9a8:	2002      	movs	r0, #2
     9aa:	4b61      	ldr	r3, [pc, #388]	; (b30 <main+0x3b8>)
     9ac:	4798      	blx	r3
     9ae:	2800      	cmp	r0, #0
     9b0:	d06a      	beq.n	a88 <main+0x310>
					adc_interruptSet();
     9b2:	4b60      	ldr	r3, [pc, #384]	; (b34 <main+0x3bc>)
     9b4:	4798      	blx	r3
					mode = 2;
     9b6:	2202      	movs	r2, #2
     9b8:	4b5b      	ldr	r3, [pc, #364]	; (b28 <main+0x3b0>)
     9ba:	711a      	strb	r2, [r3, #4]
					led_writeAll(0, 0, 0);
     9bc:	2200      	movs	r2, #0
     9be:	2100      	movs	r1, #0
     9c0:	2000      	movs	r0, #0
     9c2:	4b57      	ldr	r3, [pc, #348]	; (b20 <main+0x3a8>)
     9c4:	4798      	blx	r3
					spi_write();
     9c6:	4b57      	ldr	r3, [pc, #348]	; (b24 <main+0x3ac>)
     9c8:	4798      	blx	r3
					counter_flagSet(0);
     9ca:	2000      	movs	r0, #0
     9cc:	4b5a      	ldr	r3, [pc, #360]	; (b38 <main+0x3c0>)
     9ce:	4798      	blx	r3
     9d0:	e05a      	b.n	a88 <main+0x310>
					adc_reset();
     9d2:	4b52      	ldr	r3, [pc, #328]	; (b1c <main+0x3a4>)
     9d4:	4798      	blx	r3
					mode = 0; // go to mode 0
     9d6:	4d54      	ldr	r5, [pc, #336]	; (b28 <main+0x3b0>)
     9d8:	2300      	movs	r3, #0
     9da:	4699      	mov	r9, r3
     9dc:	712b      	strb	r3, [r5, #4]
					color = RED;
     9de:	716b      	strb	r3, [r5, #5]
					led_writeAll(0, 0, 0); // turn off LEDs
     9e0:	2200      	movs	r2, #0
     9e2:	2100      	movs	r1, #0
     9e4:	2000      	movs	r0, #0
     9e6:	4b4e      	ldr	r3, [pc, #312]	; (b20 <main+0x3a8>)
     9e8:	4798      	blx	r3
					spi_write();
     9ea:	4b4e      	ldr	r3, [pc, #312]	; (b24 <main+0x3ac>)
     9ec:	4798      	blx	r3
					index = 0;
     9ee:	464b      	mov	r3, r9
     9f0:	80eb      	strh	r3, [r5, #6]
     9f2:	e7d4      	b.n	99e <main+0x226>
					adc_reset();
     9f4:	4b49      	ldr	r3, [pc, #292]	; (b1c <main+0x3a4>)
     9f6:	4798      	blx	r3
					mode = 1; // go to mode 1
     9f8:	4d4b      	ldr	r5, [pc, #300]	; (b28 <main+0x3b0>)
     9fa:	2301      	movs	r3, #1
     9fc:	4699      	mov	r9, r3
     9fe:	712b      	strb	r3, [r5, #4]
					led_writeAll(0, 0, 0); // turn off LEDs
     a00:	2200      	movs	r2, #0
     a02:	2100      	movs	r1, #0
     a04:	2000      	movs	r0, #0
     a06:	4b46      	ldr	r3, [pc, #280]	; (b20 <main+0x3a8>)
     a08:	4798      	blx	r3
					spi_write();
     a0a:	4b46      	ldr	r3, [pc, #280]	; (b24 <main+0x3ac>)
     a0c:	4798      	blx	r3
					counter_flagSet(0); // make sure flag is cleared before next spi write
     a0e:	2000      	movs	r0, #0
     a10:	4b49      	ldr	r3, [pc, #292]	; (b38 <main+0x3c0>)
     a12:	4798      	blx	r3
					index = 0;
     a14:	2300      	movs	r3, #0
     a16:	80eb      	strh	r3, [r5, #6]
					state = 0;
     a18:	722b      	strb	r3, [r5, #8]
					led = 1;
     a1a:	4b48      	ldr	r3, [pc, #288]	; (b3c <main+0x3c4>)
     a1c:	464a      	mov	r2, r9
     a1e:	701a      	strb	r2, [r3, #0]
					next_led = 2;
     a20:	2202      	movs	r2, #2
     a22:	705a      	strb	r2, [r3, #1]
					led_state = 0;
     a24:	2300      	movs	r3, #0
     a26:	726b      	strb	r3, [r5, #9]
     a28:	e7be      	b.n	9a8 <main+0x230>
					blue = fade_up[index];
     a2a:	4b3f      	ldr	r3, [pc, #252]	; (b28 <main+0x3b0>)
     a2c:	88db      	ldrh	r3, [r3, #6]
     a2e:	005b      	lsls	r3, r3, #1
     a30:	4a45      	ldr	r2, [pc, #276]	; (b48 <main+0x3d0>)
     a32:	5a9b      	ldrh	r3, [r3, r2]
     a34:	9301      	str	r3, [sp, #4]
					next_blue = 0;
     a36:	2300      	movs	r3, #0
     a38:	9305      	str	r3, [sp, #20]
					next_red = 0;
     a3a:	9304      	str	r3, [sp, #16]
					green = 0;
     a3c:	9303      	str	r3, [sp, #12]
					red = 0;
     a3e:	9302      	str	r3, [sp, #8]
				led_write(led, red, green, blue);
     a40:	4b3e      	ldr	r3, [pc, #248]	; (b3c <main+0x3c4>)
     a42:	469a      	mov	sl, r3
     a44:	7818      	ldrb	r0, [r3, #0]
     a46:	9b01      	ldr	r3, [sp, #4]
     a48:	9a03      	ldr	r2, [sp, #12]
     a4a:	9902      	ldr	r1, [sp, #8]
     a4c:	4d41      	ldr	r5, [pc, #260]	; (b54 <main+0x3dc>)
     a4e:	47a8      	blx	r5
				led_write(next_led, next_red, next_green, next_blue);
     a50:	4653      	mov	r3, sl
     a52:	7858      	ldrb	r0, [r3, #1]
     a54:	9b05      	ldr	r3, [sp, #20]
     a56:	2200      	movs	r2, #0
     a58:	9904      	ldr	r1, [sp, #16]
     a5a:	47a8      	blx	r5
				spi_write(); // send spi write
     a5c:	4b31      	ldr	r3, [pc, #196]	; (b24 <main+0x3ac>)
     a5e:	4798      	blx	r3
				index += step; // step thru table
     a60:	4b31      	ldr	r3, [pc, #196]	; (b28 <main+0x3b0>)
     a62:	88d8      	ldrh	r0, [r3, #6]
     a64:	4448      	add	r0, r9
     a66:	b280      	uxth	r0, r0
				if (index >= 360) // if table has been stepped through completely
     a68:	2368      	movs	r3, #104	; 0x68
     a6a:	33ff      	adds	r3, #255	; 0xff
     a6c:	4298      	cmp	r0, r3
     a6e:	d900      	bls.n	a72 <main+0x2fa>
     a70:	e0c7      	b.n	c02 <main+0x48a>
				index += step; // step thru table
     a72:	4b2d      	ldr	r3, [pc, #180]	; (b28 <main+0x3b0>)
     a74:	80d8      	strh	r0, [r3, #6]
		while (mode == 1)
     a76:	793b      	ldrb	r3, [r7, #4]
     a78:	2b01      	cmp	r3, #1
     a7a:	d000      	beq.n	a7e <main+0x306>
     a7c:	e101      	b.n	c82 <main+0x50a>
			if ((millis - old_millis) > 20)
     a7e:	4643      	mov	r3, r8
     a80:	681b      	ldr	r3, [r3, #0]
     a82:	1b9b      	subs	r3, r3, r6
     a84:	2b14      	cmp	r3, #20
     a86:	d883      	bhi.n	990 <main+0x218>
			if (counter_flagGet()) // if flag set
     a88:	4b28      	ldr	r3, [pc, #160]	; (b2c <main+0x3b4>)
     a8a:	4798      	blx	r3
     a8c:	2800      	cmp	r0, #0
     a8e:	d0f2      	beq.n	a76 <main+0x2fe>
				counter_flagSet(0); // clear flag
     a90:	2000      	movs	r0, #0
     a92:	4b29      	ldr	r3, [pc, #164]	; (b38 <main+0x3c0>)
     a94:	4798      	blx	r3
				step = calculate_adc();
     a96:	4b2a      	ldr	r3, [pc, #168]	; (b40 <main+0x3c8>)
     a98:	4798      	blx	r3
     a9a:	4681      	mov	r9, r0
				switch (state)
     a9c:	4b22      	ldr	r3, [pc, #136]	; (b28 <main+0x3b0>)
     a9e:	7a1a      	ldrb	r2, [r3, #8]
     aa0:	2a07      	cmp	r2, #7
     aa2:	d8cd      	bhi.n	a40 <main+0x2c8>
     aa4:	0093      	lsls	r3, r2, #2
     aa6:	4a2c      	ldr	r2, [pc, #176]	; (b58 <main+0x3e0>)
     aa8:	58d3      	ldr	r3, [r2, r3]
     aaa:	469f      	mov	pc, r3
					red = fade_up[index];
     aac:	4b1e      	ldr	r3, [pc, #120]	; (b28 <main+0x3b0>)
     aae:	88db      	ldrh	r3, [r3, #6]
     ab0:	005b      	lsls	r3, r3, #1
     ab2:	4a25      	ldr	r2, [pc, #148]	; (b48 <main+0x3d0>)
     ab4:	5a9b      	ldrh	r3, [r3, r2]
     ab6:	9302      	str	r3, [sp, #8]
					next_blue = 0;
     ab8:	2300      	movs	r3, #0
     aba:	9305      	str	r3, [sp, #20]
					next_red = 0;
     abc:	9304      	str	r3, [sp, #16]
					blue = 4095;
     abe:	4b23      	ldr	r3, [pc, #140]	; (b4c <main+0x3d4>)
     ac0:	9301      	str	r3, [sp, #4]
					green = 0;
     ac2:	2300      	movs	r3, #0
     ac4:	9303      	str	r3, [sp, #12]
					break;
     ac6:	e7bb      	b.n	a40 <main+0x2c8>
					blue = fade_down[index];
     ac8:	4b17      	ldr	r3, [pc, #92]	; (b28 <main+0x3b0>)
     aca:	88da      	ldrh	r2, [r3, #6]
     acc:	0052      	lsls	r2, r2, #1
     ace:	4b20      	ldr	r3, [pc, #128]	; (b50 <main+0x3d8>)
     ad0:	189b      	adds	r3, r3, r2
     ad2:	2250      	movs	r2, #80	; 0x50
     ad4:	5a9b      	ldrh	r3, [r3, r2]
     ad6:	9301      	str	r3, [sp, #4]
					next_blue = 0;
     ad8:	2300      	movs	r3, #0
     ada:	9305      	str	r3, [sp, #20]
					next_red = 0;
     adc:	9304      	str	r3, [sp, #16]
					green = 0;
     ade:	9303      	str	r3, [sp, #12]
					red = 4095;
     ae0:	4b1a      	ldr	r3, [pc, #104]	; (b4c <main+0x3d4>)
     ae2:	9302      	str	r3, [sp, #8]
					break;
     ae4:	e7ac      	b.n	a40 <main+0x2c8>
     ae6:	46c0      	nop			; (mov r8, r8)
     ae8:	000005b1 	.word	0x000005b1
     aec:	e000e010 	.word	0xe000e010
     af0:	0000bb7f 	.word	0x0000bb7f
     af4:	e000ed00 	.word	0xe000ed00
     af8:	00000671 	.word	0x00000671
     afc:	00000f9d 	.word	0x00000f9d
     b00:	000003c9 	.word	0x000003c9
     b04:	00000d75 	.word	0x00000d75
     b08:	000005c1 	.word	0x000005c1
     b0c:	00000311 	.word	0x00000311
     b10:	00000115 	.word	0x00000115
     b14:	00001029 	.word	0x00001029
     b18:	00000399 	.word	0x00000399
     b1c:	00000259 	.word	0x00000259
     b20:	000006e5 	.word	0x000006e5
     b24:	00000eb1 	.word	0x00000eb1
     b28:	20000490 	.word	0x20000490
     b2c:	00000465 	.word	0x00000465
     b30:	00000345 	.word	0x00000345
     b34:	0000027d 	.word	0x0000027d
     b38:	00000471 	.word	0x00000471
     b3c:	20000004 	.word	0x20000004
     b40:	0000071d 	.word	0x0000071d
     b44:	00001308 	.word	0x00001308
     b48:	00001358 	.word	0x00001358
     b4c:	00000fff 	.word	0x00000fff
     b50:	000015d8 	.word	0x000015d8
     b54:	0000068d 	.word	0x0000068d
     b58:	00001320 	.word	0x00001320
					green = fade_up[index];
     b5c:	4b75      	ldr	r3, [pc, #468]	; (d34 <main+0x5bc>)
     b5e:	88db      	ldrh	r3, [r3, #6]
     b60:	005b      	lsls	r3, r3, #1
     b62:	4a75      	ldr	r2, [pc, #468]	; (d38 <main+0x5c0>)
     b64:	5a9b      	ldrh	r3, [r3, r2]
     b66:	9303      	str	r3, [sp, #12]
					next_blue = 0;
     b68:	2300      	movs	r3, #0
     b6a:	9305      	str	r3, [sp, #20]
					next_red = 0;
     b6c:	9304      	str	r3, [sp, #16]
					blue = 0;
     b6e:	9301      	str	r3, [sp, #4]
					red = 4095;
     b70:	4b72      	ldr	r3, [pc, #456]	; (d3c <main+0x5c4>)
     b72:	9302      	str	r3, [sp, #8]
					break;
     b74:	e764      	b.n	a40 <main+0x2c8>
					red = fade_down[index];
     b76:	4b6f      	ldr	r3, [pc, #444]	; (d34 <main+0x5bc>)
     b78:	88da      	ldrh	r2, [r3, #6]
     b7a:	0052      	lsls	r2, r2, #1
     b7c:	4b70      	ldr	r3, [pc, #448]	; (d40 <main+0x5c8>)
     b7e:	189b      	adds	r3, r3, r2
     b80:	2250      	movs	r2, #80	; 0x50
     b82:	5a9b      	ldrh	r3, [r3, r2]
     b84:	9302      	str	r3, [sp, #8]
					next_blue = 0;
     b86:	2300      	movs	r3, #0
     b88:	9305      	str	r3, [sp, #20]
					next_red = 0;
     b8a:	9304      	str	r3, [sp, #16]
					blue = 0;
     b8c:	9301      	str	r3, [sp, #4]
					green = 4095;
     b8e:	4b6b      	ldr	r3, [pc, #428]	; (d3c <main+0x5c4>)
     b90:	9303      	str	r3, [sp, #12]
					break;
     b92:	e755      	b.n	a40 <main+0x2c8>
					blue = fade_up[index];
     b94:	4b67      	ldr	r3, [pc, #412]	; (d34 <main+0x5bc>)
     b96:	88db      	ldrh	r3, [r3, #6]
     b98:	005b      	lsls	r3, r3, #1
     b9a:	4a67      	ldr	r2, [pc, #412]	; (d38 <main+0x5c0>)
     b9c:	5a9b      	ldrh	r3, [r3, r2]
     b9e:	9301      	str	r3, [sp, #4]
					next_blue = 0;
     ba0:	2300      	movs	r3, #0
     ba2:	9305      	str	r3, [sp, #20]
					next_red = 0;
     ba4:	9304      	str	r3, [sp, #16]
					green = 4095;
     ba6:	4b65      	ldr	r3, [pc, #404]	; (d3c <main+0x5c4>)
     ba8:	9303      	str	r3, [sp, #12]
					red = 0;
     baa:	2300      	movs	r3, #0
     bac:	9302      	str	r3, [sp, #8]
					break;
     bae:	e747      	b.n	a40 <main+0x2c8>
					green = fade_down[index];
     bb0:	4b60      	ldr	r3, [pc, #384]	; (d34 <main+0x5bc>)
     bb2:	88db      	ldrh	r3, [r3, #6]
     bb4:	005b      	lsls	r3, r3, #1
     bb6:	4a62      	ldr	r2, [pc, #392]	; (d40 <main+0x5c8>)
     bb8:	18d2      	adds	r2, r2, r3
     bba:	2150      	movs	r1, #80	; 0x50
     bbc:	5a52      	ldrh	r2, [r2, r1]
     bbe:	9203      	str	r2, [sp, #12]
					next_blue = fade_up[index];
     bc0:	4a5d      	ldr	r2, [pc, #372]	; (d38 <main+0x5c0>)
     bc2:	5a9b      	ldrh	r3, [r3, r2]
     bc4:	9305      	str	r3, [sp, #20]
					next_red = 0;
     bc6:	2300      	movs	r3, #0
     bc8:	9304      	str	r3, [sp, #16]
					blue = 4095;
     bca:	4b5c      	ldr	r3, [pc, #368]	; (d3c <main+0x5c4>)
     bcc:	9301      	str	r3, [sp, #4]
					red = 0;
     bce:	2300      	movs	r3, #0
     bd0:	9302      	str	r3, [sp, #8]
					break;
     bd2:	e735      	b.n	a40 <main+0x2c8>
					blue = fade_down[index];
     bd4:	4b57      	ldr	r3, [pc, #348]	; (d34 <main+0x5bc>)
     bd6:	88db      	ldrh	r3, [r3, #6]
     bd8:	0059      	lsls	r1, r3, #1
     bda:	4a59      	ldr	r2, [pc, #356]	; (d40 <main+0x5c8>)
     bdc:	1852      	adds	r2, r2, r1
     bde:	2150      	movs	r1, #80	; 0x50
     be0:	5a52      	ldrh	r2, [r2, r1]
     be2:	9201      	str	r2, [sp, #4]
					if (blue == 1) // normalize blue at high step size
     be4:	2a01      	cmp	r2, #1
     be6:	d009      	beq.n	bfc <main+0x484>
					next_red = fade_up[index];
     be8:	005b      	lsls	r3, r3, #1
     bea:	4a53      	ldr	r2, [pc, #332]	; (d38 <main+0x5c0>)
     bec:	5a9b      	ldrh	r3, [r3, r2]
     bee:	9304      	str	r3, [sp, #16]
					next_blue = 4095;
     bf0:	4b52      	ldr	r3, [pc, #328]	; (d3c <main+0x5c4>)
     bf2:	9305      	str	r3, [sp, #20]
					green = 0;
     bf4:	2300      	movs	r3, #0
     bf6:	9303      	str	r3, [sp, #12]
					red = 0;
     bf8:	9302      	str	r3, [sp, #8]
					break;
     bfa:	e721      	b.n	a40 <main+0x2c8>
						blue = 0;
     bfc:	2200      	movs	r2, #0
     bfe:	9201      	str	r2, [sp, #4]
     c00:	e7f2      	b.n	be8 <main+0x470>
					index = 0; // reset index
     c02:	4b4c      	ldr	r3, [pc, #304]	; (d34 <main+0x5bc>)
     c04:	2200      	movs	r2, #0
     c06:	80da      	strh	r2, [r3, #6]
					state += 1; // increment color state
     c08:	7a1b      	ldrb	r3, [r3, #8]
     c0a:	3301      	adds	r3, #1
     c0c:	b2db      	uxtb	r3, r3
					if (state > 7) // at end of state machine
     c0e:	2b07      	cmp	r3, #7
     c10:	d802      	bhi.n	c18 <main+0x4a0>
					state += 1; // increment color state
     c12:	4a48      	ldr	r2, [pc, #288]	; (d34 <main+0x5bc>)
     c14:	7213      	strb	r3, [r2, #8]
     c16:	e72e      	b.n	a76 <main+0x2fe>
						state = 2; // go to state 2 (first 2 states covered in case 6 and 7 for next led)
     c18:	4b46      	ldr	r3, [pc, #280]	; (d34 <main+0x5bc>)
     c1a:	2202      	movs	r2, #2
     c1c:	721a      	strb	r2, [r3, #8]
						switch (led_state) // to get LEDs in figure-eight pattern
     c1e:	7a58      	ldrb	r0, [r3, #9]
     c20:	2805      	cmp	r0, #5
     c22:	d808      	bhi.n	c36 <main+0x4be>
     c24:	0083      	lsls	r3, r0, #2
     c26:	4a47      	ldr	r2, [pc, #284]	; (d44 <main+0x5cc>)
     c28:	58d3      	ldr	r3, [r2, r3]
     c2a:	469f      	mov	pc, r3
							led = 2;
     c2c:	4b46      	ldr	r3, [pc, #280]	; (d48 <main+0x5d0>)
     c2e:	2202      	movs	r2, #2
     c30:	701a      	strb	r2, [r3, #0]
							next_led = 5;
     c32:	3203      	adds	r2, #3
     c34:	705a      	strb	r2, [r3, #1]
						led_state++;
     c36:	3001      	adds	r0, #1
						led_state %= 6;
     c38:	b2c0      	uxtb	r0, r0
     c3a:	2106      	movs	r1, #6
     c3c:	4b43      	ldr	r3, [pc, #268]	; (d4c <main+0x5d4>)
     c3e:	4798      	blx	r3
     c40:	4b3c      	ldr	r3, [pc, #240]	; (d34 <main+0x5bc>)
     c42:	7259      	strb	r1, [r3, #9]
     c44:	e717      	b.n	a76 <main+0x2fe>
							led = 5;
     c46:	4b40      	ldr	r3, [pc, #256]	; (d48 <main+0x5d0>)
     c48:	2205      	movs	r2, #5
     c4a:	701a      	strb	r2, [r3, #0]
							next_led = 4;
     c4c:	3a01      	subs	r2, #1
     c4e:	705a      	strb	r2, [r3, #1]
							break;
     c50:	e7f1      	b.n	c36 <main+0x4be>
							led = 4;
     c52:	4b3d      	ldr	r3, [pc, #244]	; (d48 <main+0x5d0>)
     c54:	2204      	movs	r2, #4
     c56:	701a      	strb	r2, [r3, #0]
							next_led = 3;
     c58:	3a01      	subs	r2, #1
     c5a:	705a      	strb	r2, [r3, #1]
							break;
     c5c:	e7eb      	b.n	c36 <main+0x4be>
							led = 3;
     c5e:	4b3a      	ldr	r3, [pc, #232]	; (d48 <main+0x5d0>)
     c60:	2203      	movs	r2, #3
     c62:	701a      	strb	r2, [r3, #0]
							next_led = 5;
     c64:	3202      	adds	r2, #2
     c66:	705a      	strb	r2, [r3, #1]
							break;
     c68:	e7e5      	b.n	c36 <main+0x4be>
							led = 5;
     c6a:	4b37      	ldr	r3, [pc, #220]	; (d48 <main+0x5d0>)
     c6c:	2205      	movs	r2, #5
     c6e:	701a      	strb	r2, [r3, #0]
							next_led = 1;
     c70:	3a04      	subs	r2, #4
     c72:	705a      	strb	r2, [r3, #1]
							break;
     c74:	e7df      	b.n	c36 <main+0x4be>
							led = 1;
     c76:	4b34      	ldr	r3, [pc, #208]	; (d48 <main+0x5d0>)
     c78:	2201      	movs	r2, #1
     c7a:	701a      	strb	r2, [r3, #0]
							next_led = 2;
     c7c:	3201      	adds	r2, #1
     c7e:	705a      	strb	r2, [r3, #1]
							break;
     c80:	e7d9      	b.n	c36 <main+0x4be>
		while (mode == 2)
     c82:	4d2c      	ldr	r5, [pc, #176]	; (d34 <main+0x5bc>)
     c84:	792b      	ldrb	r3, [r5, #4]
     c86:	2b02      	cmp	r3, #2
     c88:	d000      	beq.n	c8c <main+0x514>
     c8a:	e5b6      	b.n	7fa <main+0x82>
			if (counter_flagGet())
     c8c:	47a0      	blx	r4
     c8e:	2800      	cmp	r0, #0
     c90:	d0f8      	beq.n	c84 <main+0x50c>
				counter_flagSet(0);
     c92:	2000      	movs	r0, #0
     c94:	4b2e      	ldr	r3, [pc, #184]	; (d50 <main+0x5d8>)
     c96:	4798      	blx	r3
				if (adc_get_X() < -50)
     c98:	4b2e      	ldr	r3, [pc, #184]	; (d54 <main+0x5dc>)
     c9a:	4798      	blx	r3
     c9c:	3032      	adds	r0, #50	; 0x32
     c9e:	db24      	blt.n	cea <main+0x572>
				if (adc_get_X() > 50)
     ca0:	4b2c      	ldr	r3, [pc, #176]	; (d54 <main+0x5dc>)
     ca2:	4798      	blx	r3
     ca4:	2832      	cmp	r0, #50	; 0x32
     ca6:	dc29      	bgt.n	cfc <main+0x584>
				if (adc_get_Y() < -50)
     ca8:	4b2b      	ldr	r3, [pc, #172]	; (d58 <main+0x5e0>)
     caa:	4798      	blx	r3
     cac:	3032      	adds	r0, #50	; 0x32
     cae:	db2e      	blt.n	d0e <main+0x596>
				if (adc_get_Y() > 50)
     cb0:	4b29      	ldr	r3, [pc, #164]	; (d58 <main+0x5e0>)
     cb2:	4798      	blx	r3
     cb4:	2832      	cmp	r0, #50	; 0x32
     cb6:	dc33      	bgt.n	d20 <main+0x5a8>
				if ((adc_get_Y() >= -50) && (adc_get_Y() <= 50) && (adc_get_X() >= -50) && (adc_get_X() <= 50))
     cb8:	4b27      	ldr	r3, [pc, #156]	; (d58 <main+0x5e0>)
     cba:	4798      	blx	r3
     cbc:	3032      	adds	r0, #50	; 0x32
     cbe:	dbe1      	blt.n	c84 <main+0x50c>
     cc0:	4b25      	ldr	r3, [pc, #148]	; (d58 <main+0x5e0>)
     cc2:	4798      	blx	r3
     cc4:	2832      	cmp	r0, #50	; 0x32
     cc6:	dcdd      	bgt.n	c84 <main+0x50c>
     cc8:	4b22      	ldr	r3, [pc, #136]	; (d54 <main+0x5dc>)
     cca:	4798      	blx	r3
     ccc:	3032      	adds	r0, #50	; 0x32
     cce:	dbd9      	blt.n	c84 <main+0x50c>
     cd0:	4b20      	ldr	r3, [pc, #128]	; (d54 <main+0x5dc>)
     cd2:	4798      	blx	r3
     cd4:	2832      	cmp	r0, #50	; 0x32
     cd6:	dcd5      	bgt.n	c84 <main+0x50c>
					led_write(5, 4095, 4095, 4095);
     cd8:	4918      	ldr	r1, [pc, #96]	; (d3c <main+0x5c4>)
     cda:	000b      	movs	r3, r1
     cdc:	000a      	movs	r2, r1
     cde:	2005      	movs	r0, #5
     ce0:	4f1e      	ldr	r7, [pc, #120]	; (d5c <main+0x5e4>)
     ce2:	47b8      	blx	r7
					spi_write();
     ce4:	4b1e      	ldr	r3, [pc, #120]	; (d60 <main+0x5e8>)
     ce6:	4798      	blx	r3
     ce8:	e7cc      	b.n	c84 <main+0x50c>
					led_write(4, 4095, 4095, 4095);
     cea:	4914      	ldr	r1, [pc, #80]	; (d3c <main+0x5c4>)
     cec:	000b      	movs	r3, r1
     cee:	000a      	movs	r2, r1
     cf0:	2004      	movs	r0, #4
     cf2:	4f1a      	ldr	r7, [pc, #104]	; (d5c <main+0x5e4>)
     cf4:	47b8      	blx	r7
					spi_write();
     cf6:	4b1a      	ldr	r3, [pc, #104]	; (d60 <main+0x5e8>)
     cf8:	4798      	blx	r3
     cfa:	e7d1      	b.n	ca0 <main+0x528>
					led_write(2, 4095, 4095, 4095);
     cfc:	490f      	ldr	r1, [pc, #60]	; (d3c <main+0x5c4>)
     cfe:	000b      	movs	r3, r1
     d00:	000a      	movs	r2, r1
     d02:	2002      	movs	r0, #2
     d04:	4f15      	ldr	r7, [pc, #84]	; (d5c <main+0x5e4>)
     d06:	47b8      	blx	r7
					spi_write();
     d08:	4b15      	ldr	r3, [pc, #84]	; (d60 <main+0x5e8>)
     d0a:	4798      	blx	r3
     d0c:	e7cc      	b.n	ca8 <main+0x530>
					led_write(3, 4095, 4095, 4095);
     d0e:	490b      	ldr	r1, [pc, #44]	; (d3c <main+0x5c4>)
     d10:	000b      	movs	r3, r1
     d12:	000a      	movs	r2, r1
     d14:	2003      	movs	r0, #3
     d16:	4f11      	ldr	r7, [pc, #68]	; (d5c <main+0x5e4>)
     d18:	47b8      	blx	r7
					spi_write();
     d1a:	4b11      	ldr	r3, [pc, #68]	; (d60 <main+0x5e8>)
     d1c:	4798      	blx	r3
     d1e:	e7c7      	b.n	cb0 <main+0x538>
					led_write(1, 4095, 4095, 4095);
     d20:	4906      	ldr	r1, [pc, #24]	; (d3c <main+0x5c4>)
     d22:	000b      	movs	r3, r1
     d24:	000a      	movs	r2, r1
     d26:	2001      	movs	r0, #1
     d28:	4f0c      	ldr	r7, [pc, #48]	; (d5c <main+0x5e4>)
     d2a:	47b8      	blx	r7
					spi_write();
     d2c:	4b0c      	ldr	r3, [pc, #48]	; (d60 <main+0x5e8>)
     d2e:	4798      	blx	r3
     d30:	e7c2      	b.n	cb8 <main+0x540>
     d32:	46c0      	nop			; (mov r8, r8)
     d34:	20000490 	.word	0x20000490
     d38:	00001358 	.word	0x00001358
     d3c:	00000fff 	.word	0x00000fff
     d40:	000015d8 	.word	0x000015d8
     d44:	00001340 	.word	0x00001340
     d48:	20000004 	.word	0x20000004
     d4c:	00001145 	.word	0x00001145
     d50:	00000471 	.word	0x00000471
     d54:	00000241 	.word	0x00000241
     d58:	00000229 	.word	0x00000229
     d5c:	0000068d 	.word	0x0000068d
     d60:	00000eb1 	.word	0x00000eb1

00000d64 <SysTick_Handler>:
//     | .__/ |  \ .__/
//
//-----------------------------------------------------------------------------
void SysTick_Handler ()
{
	millis++;
     d64:	4a02      	ldr	r2, [pc, #8]	; (d70 <SysTick_Handler+0xc>)
     d66:	6813      	ldr	r3, [r2, #0]
     d68:	3301      	adds	r3, #1
     d6a:	6013      	str	r3, [r2, #0]
     d6c:	4770      	bx	lr
     d6e:	46c0      	nop			; (mov r8, r8)
     d70:	20000490 	.word	0x20000490

00000d74 <spi_init>:
     d74:	b570      	push	{r4, r5, r6, lr}
     d76:	4b3b      	ldr	r3, [pc, #236]	; (e64 <spi_init+0xf0>)
     d78:	20b5      	movs	r0, #181	; 0xb5
     d7a:	5c19      	ldrb	r1, [r3, r0]
     d7c:	260f      	movs	r6, #15
     d7e:	43b1      	bics	r1, r6
     d80:	2503      	movs	r5, #3
     d82:	4329      	orrs	r1, r5
     d84:	5419      	strb	r1, [r3, r0]
     d86:	22ca      	movs	r2, #202	; 0xca
     d88:	5c9c      	ldrb	r4, [r3, r2]
     d8a:	2101      	movs	r1, #1
     d8c:	430c      	orrs	r4, r1
     d8e:	549c      	strb	r4, [r3, r2]
     d90:	2436      	movs	r4, #54	; 0x36
     d92:	5d1a      	ldrb	r2, [r3, r4]
     d94:	43b2      	bics	r2, r6
     d96:	432a      	orrs	r2, r5
     d98:	551a      	strb	r2, [r3, r4]
     d9a:	3416      	adds	r4, #22
     d9c:	5d1a      	ldrb	r2, [r3, r4]
     d9e:	430a      	orrs	r2, r1
     da0:	551a      	strb	r2, [r3, r4]
     da2:	5c1c      	ldrb	r4, [r3, r0]
     da4:	220f      	movs	r2, #15
     da6:	4022      	ands	r2, r4
     da8:	2430      	movs	r4, #48	; 0x30
     daa:	4322      	orrs	r2, r4
     dac:	541a      	strb	r2, [r3, r0]
     dae:	3016      	adds	r0, #22
     db0:	5c1a      	ldrb	r2, [r3, r0]
     db2:	430a      	orrs	r2, r1
     db4:	541a      	strb	r2, [r3, r0]
     db6:	4a2c      	ldr	r2, [pc, #176]	; (e68 <spi_init+0xf4>)
     db8:	6813      	ldr	r3, [r2, #0]
     dba:	2102      	movs	r1, #2
     dbc:	438b      	bics	r3, r1
     dbe:	6013      	str	r3, [r2, #0]
     dc0:	69d3      	ldr	r3, [r2, #28]
     dc2:	079b      	lsls	r3, r3, #30
     dc4:	d4fc      	bmi.n	dc0 <spi_init+0x4c>
     dc6:	4a29      	ldr	r2, [pc, #164]	; (e6c <spi_init+0xf8>)
     dc8:	6a13      	ldr	r3, [r2, #32]
     dca:	2140      	movs	r1, #64	; 0x40
     dcc:	430b      	orrs	r3, r1
     dce:	6213      	str	r3, [r2, #32]
     dd0:	4a27      	ldr	r2, [pc, #156]	; (e70 <spi_init+0xfc>)
     dd2:	4b28      	ldr	r3, [pc, #160]	; (e74 <spi_init+0x100>)
     dd4:	805a      	strh	r2, [r3, #2]
     dd6:	001a      	movs	r2, r3
     dd8:	7853      	ldrb	r3, [r2, #1]
     dda:	b25b      	sxtb	r3, r3
     ddc:	2b00      	cmp	r3, #0
     dde:	dbfb      	blt.n	dd8 <spi_init+0x64>
     de0:	4a21      	ldr	r2, [pc, #132]	; (e68 <spi_init+0xf4>)
     de2:	6813      	ldr	r3, [r2, #0]
     de4:	2101      	movs	r1, #1
     de6:	430b      	orrs	r3, r1
     de8:	6013      	str	r3, [r2, #0]
     dea:	6813      	ldr	r3, [r2, #0]
     dec:	07db      	lsls	r3, r3, #31
     dee:	d4fc      	bmi.n	dea <spi_init+0x76>
     df0:	69d3      	ldr	r3, [r2, #28]
     df2:	07db      	lsls	r3, r3, #31
     df4:	d4f9      	bmi.n	dea <spi_init+0x76>
     df6:	4b1c      	ldr	r3, [pc, #112]	; (e68 <spi_init+0xf4>)
     df8:	681a      	ldr	r2, [r3, #0]
     dfa:	491f      	ldr	r1, [pc, #124]	; (e78 <spi_init+0x104>)
     dfc:	400a      	ands	r2, r1
     dfe:	601a      	str	r2, [r3, #0]
     e00:	681a      	ldr	r2, [r3, #0]
     e02:	491e      	ldr	r1, [pc, #120]	; (e7c <spi_init+0x108>)
     e04:	4011      	ands	r1, r2
     e06:	2280      	movs	r2, #128	; 0x80
     e08:	0252      	lsls	r2, r2, #9
     e0a:	430a      	orrs	r2, r1
     e0c:	601a      	str	r2, [r3, #0]
     e0e:	681a      	ldr	r2, [r3, #0]
     e10:	491b      	ldr	r1, [pc, #108]	; (e80 <spi_init+0x10c>)
     e12:	400a      	ands	r2, r1
     e14:	601a      	str	r2, [r3, #0]
     e16:	681a      	ldr	r2, [r3, #0]
     e18:	491a      	ldr	r1, [pc, #104]	; (e84 <spi_init+0x110>)
     e1a:	400a      	ands	r2, r1
     e1c:	601a      	str	r2, [r3, #0]
     e1e:	681a      	ldr	r2, [r3, #0]
     e20:	4919      	ldr	r1, [pc, #100]	; (e88 <spi_init+0x114>)
     e22:	400a      	ands	r2, r1
     e24:	601a      	str	r2, [r3, #0]
     e26:	681a      	ldr	r2, [r3, #0]
     e28:	211c      	movs	r1, #28
     e2a:	438a      	bics	r2, r1
     e2c:	3910      	subs	r1, #16
     e2e:	430a      	orrs	r2, r1
     e30:	601a      	str	r2, [r3, #0]
     e32:	6859      	ldr	r1, [r3, #4]
     e34:	2280      	movs	r2, #128	; 0x80
     e36:	0292      	lsls	r2, r2, #10
     e38:	430a      	orrs	r2, r1
     e3a:	605a      	str	r2, [r3, #4]
     e3c:	001a      	movs	r2, r3
     e3e:	69d3      	ldr	r3, [r2, #28]
     e40:	075b      	lsls	r3, r3, #29
     e42:	d4fc      	bmi.n	e3e <spi_init+0xca>
     e44:	4b08      	ldr	r3, [pc, #32]	; (e68 <spi_init+0xf4>)
     e46:	220b      	movs	r2, #11
     e48:	731a      	strb	r2, [r3, #12]
     e4a:	681a      	ldr	r2, [r3, #0]
     e4c:	2102      	movs	r1, #2
     e4e:	430a      	orrs	r2, r1
     e50:	601a      	str	r2, [r3, #0]
     e52:	001a      	movs	r2, r3
     e54:	69d3      	ldr	r3, [r2, #28]
     e56:	079b      	lsls	r3, r3, #30
     e58:	d4fc      	bmi.n	e54 <spi_init+0xe0>
    NVIC->ISER[0U] = (uint32_t)(1UL << (((uint32_t)IRQn) & 0x1FUL));
     e5a:	2280      	movs	r2, #128	; 0x80
     e5c:	0192      	lsls	r2, r2, #6
     e5e:	4b0b      	ldr	r3, [pc, #44]	; (e8c <spi_init+0x118>)
     e60:	601a      	str	r2, [r3, #0]
     e62:	bd70      	pop	{r4, r5, r6, pc}
     e64:	41004400 	.word	0x41004400
     e68:	42001800 	.word	0x42001800
     e6c:	40000400 	.word	0x40000400
     e70:	00004018 	.word	0x00004018
     e74:	40000c00 	.word	0x40000c00
     e78:	ffcfffff 	.word	0xffcfffff
     e7c:	fffcffff 	.word	0xfffcffff
     e80:	bfffffff 	.word	0xbfffffff
     e84:	dfffffff 	.word	0xdfffffff
     e88:	efffffff 	.word	0xefffffff
     e8c:	e000e100 	.word	0xe000e100

00000e90 <spi_lock>:
  __ASM volatile ("cpsid i" : : : "memory");
     e90:	b672      	cpsid	i
     e92:	4b06      	ldr	r3, [pc, #24]	; (eac <spi_lock+0x1c>)
     e94:	781b      	ldrb	r3, [r3, #0]
     e96:	2b00      	cmp	r3, #0
     e98:	d105      	bne.n	ea6 <spi_lock+0x16>
     e9a:	2201      	movs	r2, #1
     e9c:	4b03      	ldr	r3, [pc, #12]	; (eac <spi_lock+0x1c>)
     e9e:	701a      	strb	r2, [r3, #0]
  __ASM volatile ("cpsie i" : : : "memory");
     ea0:	b662      	cpsie	i
     ea2:	2001      	movs	r0, #1
     ea4:	4770      	bx	lr
     ea6:	b662      	cpsie	i
     ea8:	2000      	movs	r0, #0
     eaa:	e7fb      	b.n	ea4 <spi_lock+0x14>
     eac:	2000049a 	.word	0x2000049a

00000eb0 <spi_write>:
     eb0:	b510      	push	{r4, lr}
     eb2:	4b06      	ldr	r3, [pc, #24]	; (ecc <spi_write+0x1c>)
     eb4:	4798      	blx	r3
     eb6:	2800      	cmp	r0, #0
     eb8:	d007      	beq.n	eca <spi_write+0x1a>
     eba:	2201      	movs	r2, #1
     ebc:	4b04      	ldr	r3, [pc, #16]	; (ed0 <spi_write+0x20>)
     ebe:	701a      	strb	r2, [r3, #0]
     ec0:	4b04      	ldr	r3, [pc, #16]	; (ed4 <spi_write+0x24>)
     ec2:	7819      	ldrb	r1, [r3, #0]
     ec4:	4b04      	ldr	r3, [pc, #16]	; (ed8 <spi_write+0x28>)
     ec6:	6299      	str	r1, [r3, #40]	; 0x28
     ec8:	759a      	strb	r2, [r3, #22]
     eca:	bd10      	pop	{r4, pc}
     ecc:	00000e91 	.word	0x00000e91
     ed0:	20000006 	.word	0x20000006
     ed4:	20000478 	.word	0x20000478
     ed8:	42001800 	.word	0x42001800

00000edc <spi_write_completed>:
     edc:	4b03      	ldr	r3, [pc, #12]	; (eec <spi_write_completed+0x10>)
     ede:	7858      	ldrb	r0, [r3, #1]
     ee0:	b2c0      	uxtb	r0, r0
     ee2:	2800      	cmp	r0, #0
     ee4:	d001      	beq.n	eea <spi_write_completed+0xe>
     ee6:	2200      	movs	r2, #0
     ee8:	705a      	strb	r2, [r3, #1]
     eea:	4770      	bx	lr
     eec:	2000049a 	.word	0x2000049a

00000ef0 <SERCOM4_Handler>:
     ef0:	4b16      	ldr	r3, [pc, #88]	; (f4c <SERCOM4_Handler+0x5c>)
     ef2:	7e1b      	ldrb	r3, [r3, #24]
     ef4:	07db      	lsls	r3, r3, #31
     ef6:	d511      	bpl.n	f1c <SERCOM4_Handler+0x2c>
     ef8:	4b15      	ldr	r3, [pc, #84]	; (f50 <SERCOM4_Handler+0x60>)
     efa:	781b      	ldrb	r3, [r3, #0]
     efc:	b2db      	uxtb	r3, r3
     efe:	2b17      	cmp	r3, #23
     f00:	d811      	bhi.n	f26 <SERCOM4_Handler+0x36>
     f02:	4913      	ldr	r1, [pc, #76]	; (f50 <SERCOM4_Handler+0x60>)
     f04:	780b      	ldrb	r3, [r1, #0]
     f06:	b2db      	uxtb	r3, r3
     f08:	1c5a      	adds	r2, r3, #1
     f0a:	b2d2      	uxtb	r2, r2
     f0c:	700a      	strb	r2, [r1, #0]
     f0e:	4a11      	ldr	r2, [pc, #68]	; (f54 <SERCOM4_Handler+0x64>)
     f10:	5cd2      	ldrb	r2, [r2, r3]
     f12:	4b0e      	ldr	r3, [pc, #56]	; (f4c <SERCOM4_Handler+0x5c>)
     f14:	629a      	str	r2, [r3, #40]	; 0x28
     f16:	2201      	movs	r2, #1
     f18:	4b0c      	ldr	r3, [pc, #48]	; (f4c <SERCOM4_Handler+0x5c>)
     f1a:	761a      	strb	r2, [r3, #24]
     f1c:	4b0b      	ldr	r3, [pc, #44]	; (f4c <SERCOM4_Handler+0x5c>)
     f1e:	7e1b      	ldrb	r3, [r3, #24]
     f20:	079b      	lsls	r3, r3, #30
     f22:	d406      	bmi.n	f32 <SERCOM4_Handler+0x42>
     f24:	4770      	bx	lr
     f26:	4b09      	ldr	r3, [pc, #36]	; (f4c <SERCOM4_Handler+0x5c>)
     f28:	2201      	movs	r2, #1
     f2a:	751a      	strb	r2, [r3, #20]
     f2c:	3201      	adds	r2, #1
     f2e:	759a      	strb	r2, [r3, #22]
     f30:	e7f1      	b.n	f16 <SERCOM4_Handler+0x26>
     f32:	4b06      	ldr	r3, [pc, #24]	; (f4c <SERCOM4_Handler+0x5c>)
     f34:	2202      	movs	r2, #2
     f36:	761a      	strb	r2, [r3, #24]
     f38:	751a      	strb	r2, [r3, #20]
     f3a:	3a01      	subs	r2, #1
     f3c:	4b04      	ldr	r3, [pc, #16]	; (f50 <SERCOM4_Handler+0x60>)
     f3e:	701a      	strb	r2, [r3, #0]
     f40:	4b05      	ldr	r3, [pc, #20]	; (f58 <SERCOM4_Handler+0x68>)
     f42:	705a      	strb	r2, [r3, #1]
     f44:	2200      	movs	r2, #0
     f46:	701a      	strb	r2, [r3, #0]
     f48:	e7ec      	b.n	f24 <SERCOM4_Handler+0x34>
     f4a:	46c0      	nop			; (mov r8, r8)
     f4c:	42001800 	.word	0x42001800
     f50:	20000006 	.word	0x20000006
     f54:	20000478 	.word	0x20000478
     f58:	2000049a 	.word	0x2000049a

00000f5c <timer_set_period>:
}

//============================================================================
void timer_set_period(uint32_t period)
{
	TCC0->PERB.reg = period;
     f5c:	4b0e      	ldr	r3, [pc, #56]	; (f98 <timer_set_period+0x3c>)
     f5e:	66d8      	str	r0, [r3, #108]	; 0x6c
	// Set the time to count and wait for synchronization.
	TCC0->CCB[0].bit.CCB = period/2;
     f60:	01c0      	lsls	r0, r0, #7
     f62:	6f1a      	ldr	r2, [r3, #112]	; 0x70
     f64:	0a00      	lsrs	r0, r0, #8
     f66:	0e12      	lsrs	r2, r2, #24
     f68:	0612      	lsls	r2, r2, #24
     f6a:	4302      	orrs	r2, r0
     f6c:	671a      	str	r2, [r3, #112]	; 0x70
	TCC0->CCB[1].bit.CCB = period/2;
     f6e:	6f5a      	ldr	r2, [r3, #116]	; 0x74
     f70:	0e12      	lsrs	r2, r2, #24
     f72:	0612      	lsls	r2, r2, #24
     f74:	4302      	orrs	r2, r0
     f76:	675a      	str	r2, [r3, #116]	; 0x74
	TCC0->CCB[2].bit.CCB = period/2;
     f78:	6f9a      	ldr	r2, [r3, #120]	; 0x78
     f7a:	0e12      	lsrs	r2, r2, #24
     f7c:	0612      	lsls	r2, r2, #24
     f7e:	4302      	orrs	r2, r0
     f80:	679a      	str	r2, [r3, #120]	; 0x78
	TCC0->CCB[3].bit.CCB = period/2;
     f82:	6fda      	ldr	r2, [r3, #124]	; 0x7c
     f84:	0e12      	lsrs	r2, r2, #24
     f86:	0612      	lsls	r2, r2, #24
     f88:	4310      	orrs	r0, r2
     f8a:	67d8      	str	r0, [r3, #124]	; 0x7c
	while (TCC0->SYNCBUSY.bit.CCB0);
     f8c:	001a      	movs	r2, r3
     f8e:	6893      	ldr	r3, [r2, #8]
     f90:	031b      	lsls	r3, r3, #12
     f92:	d4fc      	bmi.n	f8e <timer_set_period+0x32>
}
     f94:	4770      	bx	lr
     f96:	46c0      	nop			; (mov r8, r8)
     f98:	42002000 	.word	0x42002000

00000f9c <timer_init>:
{
     f9c:	b510      	push	{r4, lr}
	PM->APBCMASK.bit.TCC0_ = 1;
     f9e:	4a1b      	ldr	r2, [pc, #108]	; (100c <timer_init+0x70>)
     fa0:	6a11      	ldr	r1, [r2, #32]
     fa2:	2380      	movs	r3, #128	; 0x80
     fa4:	005b      	lsls	r3, r3, #1
     fa6:	430b      	orrs	r3, r1
     fa8:	6213      	str	r3, [r2, #32]
	GCLK->CLKCTRL.reg = GCLK_CLKCTRL_ID(GCLK_CLKCTRL_ID_TCC0_TCC1) |
     faa:	4a19      	ldr	r2, [pc, #100]	; (1010 <timer_init+0x74>)
     fac:	4b19      	ldr	r3, [pc, #100]	; (1014 <timer_init+0x78>)
     fae:	805a      	strh	r2, [r3, #2]
	while(GCLK->STATUS.reg & GCLK_STATUS_SYNCBUSY);
     fb0:	001a      	movs	r2, r3
     fb2:	7853      	ldrb	r3, [r2, #1]
     fb4:	b25b      	sxtb	r3, r3
     fb6:	2b00      	cmp	r3, #0
     fb8:	dbfb      	blt.n	fb2 <timer_init+0x16>
}

//============================================================================
void timer_disable()
{
	TCC0->CTRLA.bit.ENABLE = 0;
     fba:	4a17      	ldr	r2, [pc, #92]	; (1018 <timer_init+0x7c>)
     fbc:	6813      	ldr	r3, [r2, #0]
     fbe:	2102      	movs	r1, #2
     fc0:	438b      	bics	r3, r1
     fc2:	6013      	str	r3, [r2, #0]
	PORT->Group[0].PINCFG[15].bit.PMUXEN = 1;
     fc4:	4915      	ldr	r1, [pc, #84]	; (101c <timer_init+0x80>)
     fc6:	204f      	movs	r0, #79	; 0x4f
     fc8:	5c0b      	ldrb	r3, [r1, r0]
     fca:	2401      	movs	r4, #1
     fcc:	4323      	orrs	r3, r4
     fce:	540b      	strb	r3, [r1, r0]
	PORT->Group[0].PMUX[15/2].bit.PMUXO = PORT_PMUX_PMUXO_F_Val;
     fd0:	3818      	subs	r0, #24
     fd2:	5c0c      	ldrb	r4, [r1, r0]
     fd4:	230f      	movs	r3, #15
     fd6:	4023      	ands	r3, r4
     fd8:	2450      	movs	r4, #80	; 0x50
     fda:	4323      	orrs	r3, r4
     fdc:	540b      	strb	r3, [r1, r0]
	TCC0->WAVE.bit.WAVEGEN = TCC_WAVE_WAVEGEN_MFRQ_Val; // match frequency mode
     fde:	6bd3      	ldr	r3, [r2, #60]	; 0x3c
     fe0:	2107      	movs	r1, #7
     fe2:	438b      	bics	r3, r1
     fe4:	3906      	subs	r1, #6
     fe6:	430b      	orrs	r3, r1
     fe8:	63d3      	str	r3, [r2, #60]	; 0x3c
	while (TCC0->SYNCBUSY.bit.WAVE);                    // wait for synchronization
     fea:	6893      	ldr	r3, [r2, #8]
     fec:	065b      	lsls	r3, r3, #25
     fee:	d4fc      	bmi.n	fea <timer_init+0x4e>
	timer_set_period(200);
     ff0:	20c8      	movs	r0, #200	; 0xc8
     ff2:	4b0b      	ldr	r3, [pc, #44]	; (1020 <timer_init+0x84>)
     ff4:	4798      	blx	r3
	TCC0->CTRLA.bit.PRESCALER = 0;
     ff6:	4b08      	ldr	r3, [pc, #32]	; (1018 <timer_init+0x7c>)
     ff8:	681a      	ldr	r2, [r3, #0]
     ffa:	490a      	ldr	r1, [pc, #40]	; (1024 <timer_init+0x88>)
     ffc:	400a      	ands	r2, r1
     ffe:	601a      	str	r2, [r3, #0]
	TCC0->EVCTRL.bit.MCEO0 = 1;
    1000:	6a19      	ldr	r1, [r3, #32]
    1002:	2280      	movs	r2, #128	; 0x80
    1004:	0452      	lsls	r2, r2, #17
    1006:	430a      	orrs	r2, r1
    1008:	621a      	str	r2, [r3, #32]
}
    100a:	bd10      	pop	{r4, pc}
    100c:	40000400 	.word	0x40000400
    1010:	0000401a 	.word	0x0000401a
    1014:	40000c00 	.word	0x40000c00
    1018:	42002000 	.word	0x42002000
    101c:	41004400 	.word	0x41004400
    1020:	00000f5d 	.word	0x00000f5d
    1024:	fffff8ff 	.word	0xfffff8ff

00001028 <timer_enable>:
	TCC0->CTRLA.bit.ENABLE = 1;
    1028:	4a02      	ldr	r2, [pc, #8]	; (1034 <timer_enable+0xc>)
    102a:	6813      	ldr	r3, [r2, #0]
    102c:	2102      	movs	r1, #2
    102e:	430b      	orrs	r3, r1
    1030:	6013      	str	r3, [r2, #0]
}
    1032:	4770      	bx	lr
    1034:	42002000 	.word	0x42002000

00001038 <__udivsi3>:
    1038:	2200      	movs	r2, #0
    103a:	0843      	lsrs	r3, r0, #1
    103c:	428b      	cmp	r3, r1
    103e:	d374      	bcc.n	112a <__udivsi3+0xf2>
    1040:	0903      	lsrs	r3, r0, #4
    1042:	428b      	cmp	r3, r1
    1044:	d35f      	bcc.n	1106 <__udivsi3+0xce>
    1046:	0a03      	lsrs	r3, r0, #8
    1048:	428b      	cmp	r3, r1
    104a:	d344      	bcc.n	10d6 <__udivsi3+0x9e>
    104c:	0b03      	lsrs	r3, r0, #12
    104e:	428b      	cmp	r3, r1
    1050:	d328      	bcc.n	10a4 <__udivsi3+0x6c>
    1052:	0c03      	lsrs	r3, r0, #16
    1054:	428b      	cmp	r3, r1
    1056:	d30d      	bcc.n	1074 <__udivsi3+0x3c>
    1058:	22ff      	movs	r2, #255	; 0xff
    105a:	0209      	lsls	r1, r1, #8
    105c:	ba12      	rev	r2, r2
    105e:	0c03      	lsrs	r3, r0, #16
    1060:	428b      	cmp	r3, r1
    1062:	d302      	bcc.n	106a <__udivsi3+0x32>
    1064:	1212      	asrs	r2, r2, #8
    1066:	0209      	lsls	r1, r1, #8
    1068:	d065      	beq.n	1136 <__udivsi3+0xfe>
    106a:	0b03      	lsrs	r3, r0, #12
    106c:	428b      	cmp	r3, r1
    106e:	d319      	bcc.n	10a4 <__udivsi3+0x6c>
    1070:	e000      	b.n	1074 <__udivsi3+0x3c>
    1072:	0a09      	lsrs	r1, r1, #8
    1074:	0bc3      	lsrs	r3, r0, #15
    1076:	428b      	cmp	r3, r1
    1078:	d301      	bcc.n	107e <__udivsi3+0x46>
    107a:	03cb      	lsls	r3, r1, #15
    107c:	1ac0      	subs	r0, r0, r3
    107e:	4152      	adcs	r2, r2
    1080:	0b83      	lsrs	r3, r0, #14
    1082:	428b      	cmp	r3, r1
    1084:	d301      	bcc.n	108a <__udivsi3+0x52>
    1086:	038b      	lsls	r3, r1, #14
    1088:	1ac0      	subs	r0, r0, r3
    108a:	4152      	adcs	r2, r2
    108c:	0b43      	lsrs	r3, r0, #13
    108e:	428b      	cmp	r3, r1
    1090:	d301      	bcc.n	1096 <__udivsi3+0x5e>
    1092:	034b      	lsls	r3, r1, #13
    1094:	1ac0      	subs	r0, r0, r3
    1096:	4152      	adcs	r2, r2
    1098:	0b03      	lsrs	r3, r0, #12
    109a:	428b      	cmp	r3, r1
    109c:	d301      	bcc.n	10a2 <__udivsi3+0x6a>
    109e:	030b      	lsls	r3, r1, #12
    10a0:	1ac0      	subs	r0, r0, r3
    10a2:	4152      	adcs	r2, r2
    10a4:	0ac3      	lsrs	r3, r0, #11
    10a6:	428b      	cmp	r3, r1
    10a8:	d301      	bcc.n	10ae <__udivsi3+0x76>
    10aa:	02cb      	lsls	r3, r1, #11
    10ac:	1ac0      	subs	r0, r0, r3
    10ae:	4152      	adcs	r2, r2
    10b0:	0a83      	lsrs	r3, r0, #10
    10b2:	428b      	cmp	r3, r1
    10b4:	d301      	bcc.n	10ba <__udivsi3+0x82>
    10b6:	028b      	lsls	r3, r1, #10
    10b8:	1ac0      	subs	r0, r0, r3
    10ba:	4152      	adcs	r2, r2
    10bc:	0a43      	lsrs	r3, r0, #9
    10be:	428b      	cmp	r3, r1
    10c0:	d301      	bcc.n	10c6 <__udivsi3+0x8e>
    10c2:	024b      	lsls	r3, r1, #9
    10c4:	1ac0      	subs	r0, r0, r3
    10c6:	4152      	adcs	r2, r2
    10c8:	0a03      	lsrs	r3, r0, #8
    10ca:	428b      	cmp	r3, r1
    10cc:	d301      	bcc.n	10d2 <__udivsi3+0x9a>
    10ce:	020b      	lsls	r3, r1, #8
    10d0:	1ac0      	subs	r0, r0, r3
    10d2:	4152      	adcs	r2, r2
    10d4:	d2cd      	bcs.n	1072 <__udivsi3+0x3a>
    10d6:	09c3      	lsrs	r3, r0, #7
    10d8:	428b      	cmp	r3, r1
    10da:	d301      	bcc.n	10e0 <__udivsi3+0xa8>
    10dc:	01cb      	lsls	r3, r1, #7
    10de:	1ac0      	subs	r0, r0, r3
    10e0:	4152      	adcs	r2, r2
    10e2:	0983      	lsrs	r3, r0, #6
    10e4:	428b      	cmp	r3, r1
    10e6:	d301      	bcc.n	10ec <__udivsi3+0xb4>
    10e8:	018b      	lsls	r3, r1, #6
    10ea:	1ac0      	subs	r0, r0, r3
    10ec:	4152      	adcs	r2, r2
    10ee:	0943      	lsrs	r3, r0, #5
    10f0:	428b      	cmp	r3, r1
    10f2:	d301      	bcc.n	10f8 <__udivsi3+0xc0>
    10f4:	014b      	lsls	r3, r1, #5
    10f6:	1ac0      	subs	r0, r0, r3
    10f8:	4152      	adcs	r2, r2
    10fa:	0903      	lsrs	r3, r0, #4
    10fc:	428b      	cmp	r3, r1
    10fe:	d301      	bcc.n	1104 <__udivsi3+0xcc>
    1100:	010b      	lsls	r3, r1, #4
    1102:	1ac0      	subs	r0, r0, r3
    1104:	4152      	adcs	r2, r2
    1106:	08c3      	lsrs	r3, r0, #3
    1108:	428b      	cmp	r3, r1
    110a:	d301      	bcc.n	1110 <__udivsi3+0xd8>
    110c:	00cb      	lsls	r3, r1, #3
    110e:	1ac0      	subs	r0, r0, r3
    1110:	4152      	adcs	r2, r2
    1112:	0883      	lsrs	r3, r0, #2
    1114:	428b      	cmp	r3, r1
    1116:	d301      	bcc.n	111c <__udivsi3+0xe4>
    1118:	008b      	lsls	r3, r1, #2
    111a:	1ac0      	subs	r0, r0, r3
    111c:	4152      	adcs	r2, r2
    111e:	0843      	lsrs	r3, r0, #1
    1120:	428b      	cmp	r3, r1
    1122:	d301      	bcc.n	1128 <__udivsi3+0xf0>
    1124:	004b      	lsls	r3, r1, #1
    1126:	1ac0      	subs	r0, r0, r3
    1128:	4152      	adcs	r2, r2
    112a:	1a41      	subs	r1, r0, r1
    112c:	d200      	bcs.n	1130 <__udivsi3+0xf8>
    112e:	4601      	mov	r1, r0
    1130:	4152      	adcs	r2, r2
    1132:	4610      	mov	r0, r2
    1134:	4770      	bx	lr
    1136:	e7ff      	b.n	1138 <__udivsi3+0x100>
    1138:	b501      	push	{r0, lr}
    113a:	2000      	movs	r0, #0
    113c:	f000 f806 	bl	114c <__aeabi_idiv0>
    1140:	bd02      	pop	{r1, pc}
    1142:	46c0      	nop			; (mov r8, r8)

00001144 <__aeabi_uidivmod>:
    1144:	2900      	cmp	r1, #0
    1146:	d0f7      	beq.n	1138 <__udivsi3+0x100>
    1148:	e776      	b.n	1038 <__udivsi3>
    114a:	4770      	bx	lr

0000114c <__aeabi_idiv0>:
    114c:	4770      	bx	lr
    114e:	46c0      	nop			; (mov r8, r8)

00001150 <__libc_init_array>:
    1150:	b570      	push	{r4, r5, r6, lr}
    1152:	4e0d      	ldr	r6, [pc, #52]	; (1188 <__libc_init_array+0x38>)
    1154:	4d0d      	ldr	r5, [pc, #52]	; (118c <__libc_init_array+0x3c>)
    1156:	2400      	movs	r4, #0
    1158:	1bad      	subs	r5, r5, r6
    115a:	10ad      	asrs	r5, r5, #2
    115c:	d005      	beq.n	116a <__libc_init_array+0x1a>
    115e:	00a3      	lsls	r3, r4, #2
    1160:	58f3      	ldr	r3, [r6, r3]
    1162:	3401      	adds	r4, #1
    1164:	4798      	blx	r3
    1166:	42a5      	cmp	r5, r4
    1168:	d1f9      	bne.n	115e <__libc_init_array+0xe>
    116a:	f000 fbc7 	bl	18fc <_init>
    116e:	4e08      	ldr	r6, [pc, #32]	; (1190 <__libc_init_array+0x40>)
    1170:	4d08      	ldr	r5, [pc, #32]	; (1194 <__libc_init_array+0x44>)
    1172:	2400      	movs	r4, #0
    1174:	1bad      	subs	r5, r5, r6
    1176:	10ad      	asrs	r5, r5, #2
    1178:	d005      	beq.n	1186 <__libc_init_array+0x36>
    117a:	00a3      	lsls	r3, r4, #2
    117c:	58f3      	ldr	r3, [r6, r3]
    117e:	3401      	adds	r4, #1
    1180:	4798      	blx	r3
    1182:	42a5      	cmp	r5, r4
    1184:	d1f9      	bne.n	117a <__libc_init_array+0x2a>
    1186:	bd70      	pop	{r4, r5, r6, pc}
    1188:	00001908 	.word	0x00001908
    118c:	00001908 	.word	0x00001908
    1190:	00001908 	.word	0x00001908
    1194:	00001910 	.word	0x00001910

00001198 <register_fini>:
    1198:	4b03      	ldr	r3, [pc, #12]	; (11a8 <register_fini+0x10>)
    119a:	b510      	push	{r4, lr}
    119c:	2b00      	cmp	r3, #0
    119e:	d002      	beq.n	11a6 <register_fini+0xe>
    11a0:	4802      	ldr	r0, [pc, #8]	; (11ac <register_fini+0x14>)
    11a2:	f000 f805 	bl	11b0 <atexit>
    11a6:	bd10      	pop	{r4, pc}
    11a8:	00000000 	.word	0x00000000
    11ac:	000011c1 	.word	0x000011c1

000011b0 <atexit>:
    11b0:	b510      	push	{r4, lr}
    11b2:	0001      	movs	r1, r0
    11b4:	2300      	movs	r3, #0
    11b6:	2200      	movs	r2, #0
    11b8:	2000      	movs	r0, #0
    11ba:	f000 f81f 	bl	11fc <__register_exitproc>
    11be:	bd10      	pop	{r4, pc}

000011c0 <__libc_fini_array>:
    11c0:	b570      	push	{r4, r5, r6, lr}
    11c2:	4b09      	ldr	r3, [pc, #36]	; (11e8 <__libc_fini_array+0x28>)
    11c4:	4c09      	ldr	r4, [pc, #36]	; (11ec <__libc_fini_array+0x2c>)
    11c6:	1ae4      	subs	r4, r4, r3
    11c8:	10a4      	asrs	r4, r4, #2
    11ca:	d009      	beq.n	11e0 <__libc_fini_array+0x20>
    11cc:	4a08      	ldr	r2, [pc, #32]	; (11f0 <__libc_fini_array+0x30>)
    11ce:	18a5      	adds	r5, r4, r2
    11d0:	00ad      	lsls	r5, r5, #2
    11d2:	18ed      	adds	r5, r5, r3
    11d4:	682b      	ldr	r3, [r5, #0]
    11d6:	3c01      	subs	r4, #1
    11d8:	4798      	blx	r3
    11da:	3d04      	subs	r5, #4
    11dc:	2c00      	cmp	r4, #0
    11de:	d1f9      	bne.n	11d4 <__libc_fini_array+0x14>
    11e0:	f000 fb96 	bl	1910 <_fini>
    11e4:	bd70      	pop	{r4, r5, r6, pc}
    11e6:	46c0      	nop			; (mov r8, r8)
    11e8:	0000191c 	.word	0x0000191c
    11ec:	00001920 	.word	0x00001920
    11f0:	3fffffff 	.word	0x3fffffff

000011f4 <__retarget_lock_acquire_recursive>:
    11f4:	4770      	bx	lr
    11f6:	46c0      	nop			; (mov r8, r8)

000011f8 <__retarget_lock_release_recursive>:
    11f8:	4770      	bx	lr
    11fa:	46c0      	nop			; (mov r8, r8)

000011fc <__register_exitproc>:
    11fc:	b5f0      	push	{r4, r5, r6, r7, lr}
    11fe:	464e      	mov	r6, r9
    1200:	4645      	mov	r5, r8
    1202:	46de      	mov	lr, fp
    1204:	4657      	mov	r7, sl
    1206:	b5e0      	push	{r5, r6, r7, lr}
    1208:	4d36      	ldr	r5, [pc, #216]	; (12e4 <__register_exitproc+0xe8>)
    120a:	b083      	sub	sp, #12
    120c:	0006      	movs	r6, r0
    120e:	6828      	ldr	r0, [r5, #0]
    1210:	4698      	mov	r8, r3
    1212:	000f      	movs	r7, r1
    1214:	4691      	mov	r9, r2
    1216:	f7ff ffed 	bl	11f4 <__retarget_lock_acquire_recursive>
    121a:	4b33      	ldr	r3, [pc, #204]	; (12e8 <__register_exitproc+0xec>)
    121c:	681c      	ldr	r4, [r3, #0]
    121e:	23a4      	movs	r3, #164	; 0xa4
    1220:	005b      	lsls	r3, r3, #1
    1222:	58e0      	ldr	r0, [r4, r3]
    1224:	2800      	cmp	r0, #0
    1226:	d052      	beq.n	12ce <__register_exitproc+0xd2>
    1228:	6843      	ldr	r3, [r0, #4]
    122a:	2b1f      	cmp	r3, #31
    122c:	dc13      	bgt.n	1256 <__register_exitproc+0x5a>
    122e:	1c5a      	adds	r2, r3, #1
    1230:	9201      	str	r2, [sp, #4]
    1232:	2e00      	cmp	r6, #0
    1234:	d128      	bne.n	1288 <__register_exitproc+0x8c>
    1236:	9a01      	ldr	r2, [sp, #4]
    1238:	3302      	adds	r3, #2
    123a:	009b      	lsls	r3, r3, #2
    123c:	6042      	str	r2, [r0, #4]
    123e:	501f      	str	r7, [r3, r0]
    1240:	6828      	ldr	r0, [r5, #0]
    1242:	f7ff ffd9 	bl	11f8 <__retarget_lock_release_recursive>
    1246:	2000      	movs	r0, #0
    1248:	b003      	add	sp, #12
    124a:	bc3c      	pop	{r2, r3, r4, r5}
    124c:	4690      	mov	r8, r2
    124e:	4699      	mov	r9, r3
    1250:	46a2      	mov	sl, r4
    1252:	46ab      	mov	fp, r5
    1254:	bdf0      	pop	{r4, r5, r6, r7, pc}
    1256:	4b25      	ldr	r3, [pc, #148]	; (12ec <__register_exitproc+0xf0>)
    1258:	2b00      	cmp	r3, #0
    125a:	d03d      	beq.n	12d8 <__register_exitproc+0xdc>
    125c:	20c8      	movs	r0, #200	; 0xc8
    125e:	0040      	lsls	r0, r0, #1
    1260:	e000      	b.n	1264 <__register_exitproc+0x68>
    1262:	bf00      	nop
    1264:	2800      	cmp	r0, #0
    1266:	d037      	beq.n	12d8 <__register_exitproc+0xdc>
    1268:	22a4      	movs	r2, #164	; 0xa4
    126a:	2300      	movs	r3, #0
    126c:	0052      	lsls	r2, r2, #1
    126e:	58a1      	ldr	r1, [r4, r2]
    1270:	6043      	str	r3, [r0, #4]
    1272:	6001      	str	r1, [r0, #0]
    1274:	50a0      	str	r0, [r4, r2]
    1276:	3240      	adds	r2, #64	; 0x40
    1278:	5083      	str	r3, [r0, r2]
    127a:	3204      	adds	r2, #4
    127c:	5083      	str	r3, [r0, r2]
    127e:	3301      	adds	r3, #1
    1280:	9301      	str	r3, [sp, #4]
    1282:	2300      	movs	r3, #0
    1284:	2e00      	cmp	r6, #0
    1286:	d0d6      	beq.n	1236 <__register_exitproc+0x3a>
    1288:	009a      	lsls	r2, r3, #2
    128a:	4692      	mov	sl, r2
    128c:	4482      	add	sl, r0
    128e:	464a      	mov	r2, r9
    1290:	2188      	movs	r1, #136	; 0x88
    1292:	4654      	mov	r4, sl
    1294:	5062      	str	r2, [r4, r1]
    1296:	22c4      	movs	r2, #196	; 0xc4
    1298:	0052      	lsls	r2, r2, #1
    129a:	4691      	mov	r9, r2
    129c:	4481      	add	r9, r0
    129e:	464a      	mov	r2, r9
    12a0:	3987      	subs	r1, #135	; 0x87
    12a2:	4099      	lsls	r1, r3
    12a4:	6812      	ldr	r2, [r2, #0]
    12a6:	468b      	mov	fp, r1
    12a8:	430a      	orrs	r2, r1
    12aa:	4694      	mov	ip, r2
    12ac:	464a      	mov	r2, r9
    12ae:	4661      	mov	r1, ip
    12b0:	6011      	str	r1, [r2, #0]
    12b2:	2284      	movs	r2, #132	; 0x84
    12b4:	4641      	mov	r1, r8
    12b6:	0052      	lsls	r2, r2, #1
    12b8:	50a1      	str	r1, [r4, r2]
    12ba:	2e02      	cmp	r6, #2
    12bc:	d1bb      	bne.n	1236 <__register_exitproc+0x3a>
    12be:	0002      	movs	r2, r0
    12c0:	465c      	mov	r4, fp
    12c2:	328d      	adds	r2, #141	; 0x8d
    12c4:	32ff      	adds	r2, #255	; 0xff
    12c6:	6811      	ldr	r1, [r2, #0]
    12c8:	430c      	orrs	r4, r1
    12ca:	6014      	str	r4, [r2, #0]
    12cc:	e7b3      	b.n	1236 <__register_exitproc+0x3a>
    12ce:	0020      	movs	r0, r4
    12d0:	304d      	adds	r0, #77	; 0x4d
    12d2:	30ff      	adds	r0, #255	; 0xff
    12d4:	50e0      	str	r0, [r4, r3]
    12d6:	e7a7      	b.n	1228 <__register_exitproc+0x2c>
    12d8:	6828      	ldr	r0, [r5, #0]
    12da:	f7ff ff8d 	bl	11f8 <__retarget_lock_release_recursive>
    12de:	2001      	movs	r0, #1
    12e0:	4240      	negs	r0, r0
    12e2:	e7b1      	b.n	1248 <__register_exitproc+0x4c>
    12e4:	20000430 	.word	0x20000430
    12e8:	000018f8 	.word	0x000018f8
    12ec:	00000000 	.word	0x00000000
    12f0:	000006a2 	.word	0x000006a2
    12f4:	0000069a 	.word	0x0000069a
    12f8:	000006b0 	.word	0x000006b0
    12fc:	000006ba 	.word	0x000006ba
    1300:	000006c4 	.word	0x000006c4
    1304:	000006ce 	.word	0x000006ce
    1308:	000008b6 	.word	0x000008b6
    130c:	000008ee 	.word	0x000008ee
    1310:	00000908 	.word	0x00000908
    1314:	0000091e 	.word	0x0000091e
    1318:	00000938 	.word	0x00000938
    131c:	0000094e 	.word	0x0000094e
    1320:	00000a2a 	.word	0x00000a2a
    1324:	00000aac 	.word	0x00000aac
    1328:	00000ac8 	.word	0x00000ac8
    132c:	00000b5c 	.word	0x00000b5c
    1330:	00000b76 	.word	0x00000b76
    1334:	00000b94 	.word	0x00000b94
    1338:	00000bb0 	.word	0x00000bb0
    133c:	00000bd4 	.word	0x00000bd4
    1340:	00000c2c 	.word	0x00000c2c
    1344:	00000c46 	.word	0x00000c46
    1348:	00000c52 	.word	0x00000c52
    134c:	00000c5e 	.word	0x00000c5e
    1350:	00000c6a 	.word	0x00000c6a
    1354:	00000c76 	.word	0x00000c76

00001358 <fade_up>:
	...
    1390:	00010001 00010001 00010001 00010001     ................
    13a0:	00010001 00020002 00020002 00020002     ................
    13b0:	00030003 00030003 00040004 00040004     ................
    13c0:	00050005 00060005 00070006 00070007     ................
    13d0:	00080008 00090009 000a000a 000b000b     ................
    13e0:	000d000c 000e000d 0010000f 00110010     ................
    13f0:	00130012 00140014 00160015 00180017     ................
    1400:	001a0019 001d001c 001f001e 00220020     ............ .".
    1410:	00240023 00270026 002a0028 002d002c     #.$.&.'.(.*.,.-.
    1420:	0030002f 00340032 00370036 003b0039     /.0.2.4.6.7.9.;.
    1430:	003f003d 00430041 00480045 004c004a     =.?.A.C.E.H.J.L.
    1440:	0051004f 00560053 005b0058 0060005e     O.Q.S.V.X.[.^.`.
    1450:	00660063 006c0069 0072006f 00780075     c.f.i.l.o.r.u.x.
    1460:	007f007b 00860082 008d0089 00940090     {...............
    1470:	009b0098 00a3009f 00ab00a7 00b400b0     ................
    1480:	00bd00b8 00c600c1 00cf00ca 00d900d4     ................
    1490:	00e300dd 00ed00e8 00f700f2 010200fd     ................
    14a0:	010e0108 01190113 0125011f 0131012b     ..........%.+.1.
    14b0:	013e0138 014b0145 01590152 0166015f     8.>.E.K.R.Y._.f.
    14c0:	0175016d 0183017c 0192018b 01a2019a     m.u.|...........
    14d0:	01b201aa 01c201ba 01d301ca 01e401db     ................
    14e0:	01f501ec 020701fe 021a0210 022d0223     ............#.-.
    14f0:	02400236 0254024a 0269025e 027d0273     6.@.J.T.^.i.s.}.
    1500:	02930288 02a9029e 02bf02b4 02d602cb     ................
    1510:	02ee02e2 030602f9 031e0312 0337032b     ............+.7.
    1520:	03510344 036b035e 03860378 03a10394     D.Q.^.k.x.......
    1530:	03bd03af 03da03cb 03f703e8 04150406     ................
    1540:	04330424 04520443 04720462 04920482     $.3.C.R.b.r.....
    1550:	04b304a3 04d504c4 04f704e6 051a0509     ................
    1560:	053e052c 05620550 05870574 05ad059a     ,.>.P.b.t.......
    1570:	05d305c0 05fa05e7 0622060e 064b0637     ..........".7.K.
    1580:	06740660 069e0689 06c906b4 06f506df     `.t.............
    1590:	0721070b 074f0738 077d0766 07ac0794     ..!.8.O.f.}.....
    15a0:	07db07c3 080c07f3 083d0824 086f0856     ........$.=.V.o.
    15b0:	08a20888 08d608bc 090b08f0 09400925     ............%.@.
    15c0:	0977095b 09ae0992 09e609ca 0a1f0a03     [.w.............
    15d0:	0a590a3c 0a940a77 0ad00ab2 0b0d0aee     <.Y.w...........
    15e0:	0b4b0b2c 0b8a0b6a 0bc90ba9 0c0a0be9     ,.K.j...........
    15f0:	0c4c0c2b 0c8e0c6d 0cd20cb0 0d170cf4     +.L.m...........
    1600:	0d5c0d39 0da30d80 0deb0dc7 0e340e0f     9.\...........4.
    1610:	0e7d0e58 0ec80ea3 0f140eee 0f620f3b     X.}.........;.b.
    1620:	0fb00f88 0fff0fd7                       ........

00001628 <fade_down>:
    1628:	0fd70fff 0f880fb0 0f3b0f62 0eee0f14     ........b.;.....
    1638:	0ea30ec8 0e580e7d 0e0f0e34 0dc70deb     ....}.X.4.......
    1648:	0d800da3 0d390d5c 0cf40d17 0cb00cd2     ....\.9.........
    1658:	0c6d0c8e 0c2b0c4c 0be90c0a 0ba90bc9     ..m.L.+.........
    1668:	0b6a0b8a 0b2c0b4b 0aee0b0d 0ab20ad0     ..j.K.,.........
    1678:	0a770a94 0a3c0a59 0a030a1f 09ca09e6     ..w.Y.<.........
    1688:	099209ae 095b0977 09250940 08f0090b     ....w.[.@.%.....
    1698:	08bc08d6 088808a2 0856086f 0824083d     ........o.V.=.$.
    16a8:	07f3080c 07c307db 079407ac 0766077d     ............}.f.
    16b8:	0738074f 070b0721 06df06f5 06b406c9     O.8.!...........
    16c8:	0689069e 06600674 0637064b 060e0622     ....t.`.K.7."...
    16d8:	05e705fa 05c005d3 059a05ad 05740587     ..............t.
    16e8:	05500562 052c053e 0509051a 04e604f7     b.P.>.,.........
    16f8:	04c404d5 04a304b3 04820492 04620472     ............r.b.
    1708:	04430452 04240433 04060415 03e803f7     R.C.3.$.........
    1718:	03cb03da 03af03bd 039403a1 03780386     ..............x.
    1728:	035e036b 03440351 032b0337 0312031e     k.^.Q.D.7.+.....
    1738:	02f90306 02e202ee 02cb02d6 02b402bf     ................
    1748:	029e02a9 02880293 0273027d 025e0269     ........}.s.i.^.
    1758:	024a0254 02360240 0223022d 0210021a     T.J.@.6.-.#.....
    1768:	01fe0207 01ec01f5 01db01e4 01ca01d3     ................
    1778:	01ba01c2 01aa01b2 019a01a2 018b0192     ................
    1788:	017c0183 016d0175 015f0166 01520159     ..|.u.m.f._.Y.R.
    1798:	0145014b 0138013e 012b0131 011f0125     K.E.>.8.1.+.%...
    17a8:	01130119 0108010e 00fd0102 00f200f7     ................
    17b8:	00e800ed 00dd00e3 00d400d9 00ca00cf     ................
    17c8:	00c100c6 00b800bd 00b000b4 00a700ab     ................
    17d8:	009f00a3 0098009b 00900094 0089008d     ................
    17e8:	00820086 007b007f 00750078 006f0072     ......{.x.u.r.o.
    17f8:	0069006c 00630066 005e0060 0058005b     l.i.f.c.`.^.[.X.
    1808:	00530056 004f0051 004a004c 00450048     V.S.Q.O.L.J.H.E.
    1818:	00410043 003d003f 0039003b 00360037     C.A.?.=.;.9.7.6.
    1828:	00320034 002f0030 002c002d 0028002a     4.2.0./.-.,.*.(.
    1838:	00260027 00230024 00200022 001e001f     '.&.$.#.". .....
    1848:	001c001d 0019001a 00170018 00150016     ................
    1858:	00140014 00120013 00100011 000f0010     ................
    1868:	000d000e 000c000d 000b000b 000a000a     ................
    1878:	00090009 00080008 00070007 00060007     ................
    1888:	00050006 00050005 00040004 00040004     ................
    1898:	00030003 00030003 00020002 00020002     ................
    18a8:	00020002 00010001 00010001 00010001     ................
    18b8:	00010001 00010001 00010001 00010001     ................
	...

000018f8 <_global_impure_ptr>:
    18f8:	20000008                                ... 

000018fc <_init>:
    18fc:	b5f8      	push	{r3, r4, r5, r6, r7, lr}
    18fe:	46c0      	nop			; (mov r8, r8)
    1900:	bcf8      	pop	{r3, r4, r5, r6, r7}
    1902:	bc08      	pop	{r3}
    1904:	469e      	mov	lr, r3
    1906:	4770      	bx	lr

00001908 <__init_array_start>:
    1908:	00001199 	.word	0x00001199

0000190c <__frame_dummy_init_array_entry>:
    190c:	000000dd                                ....

00001910 <_fini>:
    1910:	b5f8      	push	{r3, r4, r5, r6, r7, lr}
    1912:	46c0      	nop			; (mov r8, r8)
    1914:	bcf8      	pop	{r3, r4, r5, r6, r7}
    1916:	bc08      	pop	{r3}
    1918:	469e      	mov	lr, r3
    191a:	4770      	bx	lr

0000191c <__fini_array_start>:
    191c:	000000b5 	.word	0x000000b5
