
LAB10.elf:     file format elf32-littlearm

Sections:
Idx Name          Size      VMA       LMA       File off  Algn
  0 .text         000022d0  00000000  00000000  00010000  2**2
                  CONTENTS, ALLOC, LOAD, READONLY, CODE
  1 .relocate     00000434  20000000  000022d0  00020000  2**3
                  CONTENTS, ALLOC, LOAD, DATA
  2 .bss          00000090  20000434  00002704  00020434  2**2
                  ALLOC
  3 .stack        00002004  200004c4  00002794  00020434  2**0
                  ALLOC
  4 .ARM.attributes 00000028  00000000  00000000  00020434  2**0
                  CONTENTS, READONLY
  5 .comment      00000059  00000000  00000000  0002045c  2**0
                  CONTENTS, READONLY
  6 .debug_info   00011290  00000000  00000000  000204b5  2**0
                  CONTENTS, READONLY, DEBUGGING
  7 .debug_abbrev 000013a7  00000000  00000000  00031745  2**0
                  CONTENTS, READONLY, DEBUGGING
  8 .debug_loc    00000c7a  00000000  00000000  00032aec  2**0
                  CONTENTS, READONLY, DEBUGGING
  9 .debug_aranges 00000228  00000000  00000000  00033766  2**0
                  CONTENTS, READONLY, DEBUGGING
 10 .debug_ranges 000001d0  00000000  00000000  0003398e  2**0
                  CONTENTS, READONLY, DEBUGGING
 11 .debug_macro  0001313a  00000000  00000000  00033b5e  2**0
                  CONTENTS, READONLY, DEBUGGING
 12 .debug_line   00004a7c  00000000  00000000  00046c98  2**0
                  CONTENTS, READONLY, DEBUGGING
 13 .debug_str    00073447  00000000  00000000  0004b714  2**0
                  CONTENTS, READONLY, DEBUGGING
 14 .debug_frame  00000574  00000000  00000000  000beb5c  2**2
                  CONTENTS, READONLY, DEBUGGING

Disassembly of section .text:

00000000 <exception_table>:
       0:	c8 24 00 20 cd 04 00 00 c9 04 00 00 c9 04 00 00     .$. ............
	...
      2c:	c9 04 00 00 00 00 00 00 00 00 00 00 c9 04 00 00     ................
      3c:	ad 10 00 00 c9 04 00 00 c9 04 00 00 c9 04 00 00     ................
      4c:	c9 04 00 00 c9 04 00 00 c9 04 00 00 c9 04 00 00     ................
      5c:	c9 04 00 00 05 06 00 00 c9 04 00 00 c9 04 00 00     ................
      6c:	c9 04 00 00 c9 04 00 00 39 12 00 00 c9 04 00 00     ........9.......
      7c:	c9 04 00 00 c9 04 00 00 c9 04 00 00 81 04 00 00     ................
      8c:	c9 04 00 00 c9 04 00 00 00 00 00 00 00 00 00 00     ................
      9c:	ad 02 00 00 c9 04 00 00 c9 04 00 00 c9 04 00 00     ................
      ac:	c9 04 00 00 00 00 00 00                             ........

000000b4 <__do_global_dtors_aux>:
      b4:	b510      	push	{r4, lr}
      b6:	4c06      	ldr	r4, [pc, #24]	; (d0 <__do_global_dtors_aux+0x1c>)
      b8:	7823      	ldrb	r3, [r4, #0]
      ba:	2b00      	cmp	r3, #0
      bc:	d107      	bne.n	ce <__do_global_dtors_aux+0x1a>
      be:	4b05      	ldr	r3, [pc, #20]	; (d4 <__do_global_dtors_aux+0x20>)
      c0:	2b00      	cmp	r3, #0
      c2:	d002      	beq.n	ca <__do_global_dtors_aux+0x16>
      c4:	4804      	ldr	r0, [pc, #16]	; (d8 <__do_global_dtors_aux+0x24>)
      c6:	e000      	b.n	ca <__do_global_dtors_aux+0x16>
      c8:	bf00      	nop
      ca:	2301      	movs	r3, #1
      cc:	7023      	strb	r3, [r4, #0]
      ce:	bd10      	pop	{r4, pc}
      d0:	20000434 	.word	0x20000434
      d4:	00000000 	.word	0x00000000
      d8:	000022d0 	.word	0x000022d0

000000dc <frame_dummy>:
      dc:	4b08      	ldr	r3, [pc, #32]	; (100 <frame_dummy+0x24>)
      de:	b510      	push	{r4, lr}
      e0:	2b00      	cmp	r3, #0
      e2:	d003      	beq.n	ec <frame_dummy+0x10>
      e4:	4907      	ldr	r1, [pc, #28]	; (104 <frame_dummy+0x28>)
      e6:	4808      	ldr	r0, [pc, #32]	; (108 <frame_dummy+0x2c>)
      e8:	e000      	b.n	ec <frame_dummy+0x10>
      ea:	bf00      	nop
      ec:	4807      	ldr	r0, [pc, #28]	; (10c <frame_dummy+0x30>)
      ee:	6803      	ldr	r3, [r0, #0]
      f0:	2b00      	cmp	r3, #0
      f2:	d100      	bne.n	f6 <frame_dummy+0x1a>
      f4:	bd10      	pop	{r4, pc}
      f6:	4b06      	ldr	r3, [pc, #24]	; (110 <frame_dummy+0x34>)
      f8:	2b00      	cmp	r3, #0
      fa:	d0fb      	beq.n	f4 <frame_dummy+0x18>
      fc:	4798      	blx	r3
      fe:	e7f9      	b.n	f4 <frame_dummy+0x18>
     100:	00000000 	.word	0x00000000
     104:	20000438 	.word	0x20000438
     108:	000022d0 	.word	0x000022d0
     10c:	000022d0 	.word	0x000022d0
     110:	00000000 	.word	0x00000000

00000114 <adc_init>:

//==============================================================================
void adc_init()
{
	// enable ADC
	PM->APBCMASK.bit.ADC_ = 1;
     114:	4a38      	ldr	r2, [pc, #224]	; (1f8 <adc_init+0xe4>)
     116:	6a11      	ldr	r1, [r2, #32]
     118:	2380      	movs	r3, #128	; 0x80
     11a:	025b      	lsls	r3, r3, #9
     11c:	430b      	orrs	r3, r1
     11e:	6213      	str	r3, [r2, #32]
	
	// Enable gen clk
	GCLK->CLKCTRL.reg = GCLK_CLKCTRL_ID_ADC |
     120:	4a36      	ldr	r2, [pc, #216]	; (1fc <adc_init+0xe8>)
     122:	4b37      	ldr	r3, [pc, #220]	; (200 <adc_init+0xec>)
     124:	805a      	strh	r2, [r3, #2]
	GCLK_CLKCTRL_GEN_GCLK0 |
	GCLK_CLKCTRL_CLKEN;
	while (GCLK->STATUS.bit.SYNCBUSY);
     126:	001a      	movs	r2, r3
     128:	7853      	ldrb	r3, [r2, #1]
     12a:	09db      	lsrs	r3, r3, #7
     12c:	d1fc      	bne.n	128 <adc_init+0x14>
	
	// Reset ADC
	ADC->CTRLA.bit.SWRST = 1;
     12e:	4a35      	ldr	r2, [pc, #212]	; (204 <adc_init+0xf0>)
     130:	7813      	ldrb	r3, [r2, #0]
     132:	2101      	movs	r1, #1
     134:	430b      	orrs	r3, r1
     136:	7013      	strb	r3, [r2, #0]
	while (ADC->CTRLA.bit.SWRST || ADC->STATUS.bit.SYNCBUSY);
     138:	7813      	ldrb	r3, [r2, #0]
     13a:	07db      	lsls	r3, r3, #31
     13c:	d4fc      	bmi.n	138 <adc_init+0x24>
     13e:	7e53      	ldrb	r3, [r2, #25]
     140:	09db      	lsrs	r3, r3, #7
     142:	d1f9      	bne.n	138 <adc_init+0x24>
	
	// Disable run standby and ADC enable
	ADC->CTRLA.bit.RUNSTDBY = 0;
     144:	4b2f      	ldr	r3, [pc, #188]	; (204 <adc_init+0xf0>)
     146:	781a      	ldrb	r2, [r3, #0]
     148:	2104      	movs	r1, #4
     14a:	438a      	bics	r2, r1
     14c:	701a      	strb	r2, [r3, #0]
	ADC->CTRLA.bit.ENABLE = 0;
     14e:	781a      	ldrb	r2, [r3, #0]
     150:	3902      	subs	r1, #2
     152:	438a      	bics	r2, r1
     154:	701a      	strb	r2, [r3, #0]
	
	// Select reference voltage
	ADC->REFCTRL.bit.REFSEL = 0x02; // 0.5*VDDANA
     156:	785a      	ldrb	r2, [r3, #1]
     158:	310d      	adds	r1, #13
     15a:	438a      	bics	r2, r1
     15c:	2002      	movs	r0, #2
     15e:	4302      	orrs	r2, r0
     160:	705a      	strb	r2, [r3, #1]
	
	// Select average ctrl
	ADC->AVGCTRL.bit.ADJRES = 0;
     162:	789a      	ldrb	r2, [r3, #2]
     164:	2070      	movs	r0, #112	; 0x70
     166:	4382      	bics	r2, r0
     168:	709a      	strb	r2, [r3, #2]
	ADC->AVGCTRL.bit.SAMPLENUM = 0;
     16a:	789a      	ldrb	r2, [r3, #2]
     16c:	438a      	bics	r2, r1
     16e:	709a      	strb	r2, [r3, #2]
	
	// Select sample ctrl
	ADC->SAMPCTRL.bit.SAMPLEN = 0;
     170:	78da      	ldrb	r2, [r3, #3]
     172:	3130      	adds	r1, #48	; 0x30
     174:	438a      	bics	r2, r1
     176:	70da      	strb	r2, [r3, #3]
	
	// Set prescaler, resolution, freerun mode, and gain correction
	ADC->CTRLB.bit.PRESCALER = 0x6; // prescaler of 256
     178:	889a      	ldrh	r2, [r3, #4]
     17a:	4923      	ldr	r1, [pc, #140]	; (208 <adc_init+0xf4>)
     17c:	4011      	ands	r1, r2
     17e:	22c0      	movs	r2, #192	; 0xc0
     180:	00d2      	lsls	r2, r2, #3
     182:	430a      	orrs	r2, r1
     184:	809a      	strh	r2, [r3, #4]
	ADC->CTRLB.bit.RESSEL = 0x00; // 12-bit resolution
     186:	889a      	ldrh	r2, [r3, #4]
     188:	2130      	movs	r1, #48	; 0x30
     18a:	438a      	bics	r2, r1
     18c:	809a      	strh	r2, [r3, #4]
	ADC->CTRLB.bit.FREERUN = 1;
     18e:	889a      	ldrh	r2, [r3, #4]
     190:	2104      	movs	r1, #4
     192:	430a      	orrs	r2, r1
     194:	809a      	strh	r2, [r3, #4]
	ADC->CTRLB.bit.CORREN = 0;
     196:	889a      	ldrh	r2, [r3, #4]
     198:	2108      	movs	r1, #8
     19a:	438a      	bics	r2, r1
     19c:	809a      	strh	r2, [r3, #4]
	while (ADC->STATUS.bit.SYNCBUSY);
     19e:	001a      	movs	r2, r3
     1a0:	7e53      	ldrb	r3, [r2, #25]
     1a2:	09db      	lsrs	r3, r3, #7
     1a4:	d1fc      	bne.n	1a0 <adc_init+0x8c>
	
	// Set gain and mux selection
	ADC->INPUTCTRL.bit.GAIN = 0xF; // 0.5 * gain
     1a6:	4b17      	ldr	r3, [pc, #92]	; (204 <adc_init+0xf0>)
     1a8:	6919      	ldr	r1, [r3, #16]
     1aa:	22f0      	movs	r2, #240	; 0xf0
     1ac:	0512      	lsls	r2, r2, #20
     1ae:	430a      	orrs	r2, r1
     1b0:	611a      	str	r2, [r3, #16]
	ADC->INPUTCTRL.bit.MUXNEG = 0x18; // GND
     1b2:	691a      	ldr	r2, [r3, #16]
     1b4:	4915      	ldr	r1, [pc, #84]	; (20c <adc_init+0xf8>)
     1b6:	4011      	ands	r1, r2
     1b8:	22c0      	movs	r2, #192	; 0xc0
     1ba:	0152      	lsls	r2, r2, #5
     1bc:	430a      	orrs	r2, r1
     1be:	611a      	str	r2, [r3, #16]
	ADC->INPUTCTRL.bit.MUXPOS = 0x02; // Joystick (y-direction)
     1c0:	691a      	ldr	r2, [r3, #16]
     1c2:	211f      	movs	r1, #31
     1c4:	438a      	bics	r2, r1
     1c6:	391d      	subs	r1, #29
     1c8:	430a      	orrs	r2, r1
     1ca:	611a      	str	r2, [r3, #16]
	while (ADC->STATUS.bit.SYNCBUSY);
     1cc:	001a      	movs	r2, r3
     1ce:	7e53      	ldrb	r3, [r2, #25]
     1d0:	09db      	lsrs	r3, r3, #7
     1d2:	d1fc      	bne.n	1ce <adc_init+0xba>
 */
__STATIC_INLINE void __NVIC_EnableIRQ(IRQn_Type IRQn)
{
  if ((int32_t)(IRQn) >= 0)
  {
    NVIC->ISER[0U] = (uint32_t)(1UL << (((uint32_t)IRQn) & 0x1FUL));
     1d4:	2280      	movs	r2, #128	; 0x80
     1d6:	0412      	lsls	r2, r2, #16
     1d8:	4b0d      	ldr	r3, [pc, #52]	; (210 <adc_init+0xfc>)
     1da:	601a      	str	r2, [r3, #0]
	
	// Enable interrupts
	NVIC_EnableIRQ(ADC_IRQn);
	
	// Enable ADC
	ADC->CTRLA.bit.ENABLE = 1;
     1dc:	4b09      	ldr	r3, [pc, #36]	; (204 <adc_init+0xf0>)
     1de:	7819      	ldrb	r1, [r3, #0]
     1e0:	2002      	movs	r0, #2
     1e2:	4301      	orrs	r1, r0
     1e4:	7019      	strb	r1, [r3, #0]
	
	// Start first conversion
	ADC->SWTRIG.bit.START = 1;
     1e6:	7b1a      	ldrb	r2, [r3, #12]
     1e8:	4302      	orrs	r2, r0
     1ea:	731a      	strb	r2, [r3, #12]
	while (ADC->STATUS.bit.SYNCBUSY);
     1ec:	001a      	movs	r2, r3
     1ee:	7e53      	ldrb	r3, [r2, #25]
     1f0:	09db      	lsrs	r3, r3, #7
     1f2:	d1fc      	bne.n	1ee <adc_init+0xda>
	
}
     1f4:	4770      	bx	lr
     1f6:	46c0      	nop			; (mov r8, r8)
     1f8:	40000400 	.word	0x40000400
     1fc:	0000401e 	.word	0x0000401e
     200:	40000c00 	.word	0x40000c00
     204:	42004000 	.word	0x42004000
     208:	fffff8ff 	.word	0xfffff8ff
     20c:	ffffe0ff 	.word	0xffffe0ff
     210:	e000e100 	.word	0xe000e100

00000214 <adc_get>:

//==============================================================================
uint16_t adc_get()
{
	while (ADC->STATUS.bit.SYNCBUSY);
     214:	4a03      	ldr	r2, [pc, #12]	; (224 <adc_get+0x10>)
     216:	7e53      	ldrb	r3, [r2, #25]
     218:	09db      	lsrs	r3, r3, #7
     21a:	d1fc      	bne.n	216 <adc_get+0x2>
	return ADC->RESULT.bit.RESULT;
     21c:	4b01      	ldr	r3, [pc, #4]	; (224 <adc_get+0x10>)
     21e:	8b58      	ldrh	r0, [r3, #26]
     220:	b280      	uxth	r0, r0
}
     222:	4770      	bx	lr
     224:	42004000 	.word	0x42004000

00000228 <adc_get_Y>:
  \details Disables IRQ interrupts by setting the I-bit in the CPSR.
           Can only be executed in Privileged modes.
 */
__STATIC_FORCEINLINE void __disable_irq(void)
{
  __ASM volatile ("cpsid i" : : : "memory");
     228:	b672      	cpsid	i
int16_t adc_get_Y()
{
	int16_t result;
	// Atomic block
	__disable_irq();
	result = 2048 - y_val;
     22a:	4b04      	ldr	r3, [pc, #16]	; (23c <adc_get_Y+0x14>)
     22c:	881b      	ldrh	r3, [r3, #0]
     22e:	b29b      	uxth	r3, r3
  __ASM volatile ("cpsie i" : : : "memory");
     230:	b662      	cpsie	i
     232:	2080      	movs	r0, #128	; 0x80
     234:	0100      	lsls	r0, r0, #4
     236:	1ac0      	subs	r0, r0, r3
	
	__enable_irq();
	return result;
     238:	b200      	sxth	r0, r0
}
     23a:	4770      	bx	lr
     23c:	20000450 	.word	0x20000450

00000240 <adc_get_X>:
  __ASM volatile ("cpsid i" : : : "memory");
     240:	b672      	cpsid	i
int16_t adc_get_X()
{
	int16_t result;
	// Atomic block
	__disable_irq();
	result = 2048 - x_val;
     242:	4b04      	ldr	r3, [pc, #16]	; (254 <adc_get_X+0x14>)
     244:	885b      	ldrh	r3, [r3, #2]
     246:	b29b      	uxth	r3, r3
  __ASM volatile ("cpsie i" : : : "memory");
     248:	b662      	cpsie	i
     24a:	2080      	movs	r0, #128	; 0x80
     24c:	0100      	lsls	r0, r0, #4
     24e:	1ac0      	subs	r0, r0, r3
	__enable_irq();
	return result;
     250:	b200      	sxth	r0, r0
}
     252:	4770      	bx	lr
     254:	20000450 	.word	0x20000450

00000258 <adc_reset>:

//==============================================================================

void adc_reset()
{
	ADC->CTRLB.bit.FREERUN = 1; // enable freerun mode
     258:	4b07      	ldr	r3, [pc, #28]	; (278 <adc_reset+0x20>)
     25a:	889a      	ldrh	r2, [r3, #4]
     25c:	2104      	movs	r1, #4
     25e:	430a      	orrs	r2, r1
     260:	809a      	strh	r2, [r3, #4]
	ADC->INTENCLR.bit.RESRDY = 1; // disable interrupt
     262:	7d9a      	ldrb	r2, [r3, #22]
     264:	2101      	movs	r1, #1
     266:	430a      	orrs	r2, r1
     268:	759a      	strb	r2, [r3, #22]
	ADC->INPUTCTRL.bit.MUXPOS = 0x02; // select joystick y dir
     26a:	691a      	ldr	r2, [r3, #16]
     26c:	211f      	movs	r1, #31
     26e:	438a      	bics	r2, r1
     270:	391d      	subs	r1, #29
     272:	430a      	orrs	r2, r1
     274:	611a      	str	r2, [r3, #16]
}
     276:	4770      	bx	lr
     278:	42004000 	.word	0x42004000

0000027c <adc_interruptSet>:

//==============================================================================

void adc_interruptSet()
{
	ADC->CTRLB.bit.FREERUN = 0; // disable freerun mode
     27c:	4b09      	ldr	r3, [pc, #36]	; (2a4 <adc_interruptSet+0x28>)
     27e:	889a      	ldrh	r2, [r3, #4]
     280:	2104      	movs	r1, #4
     282:	438a      	bics	r2, r1
     284:	809a      	strh	r2, [r3, #4]
	ADC->INTENSET.bit.RESRDY = 1; // enable interrupts
     286:	7dda      	ldrb	r2, [r3, #23]
     288:	2101      	movs	r1, #1
     28a:	430a      	orrs	r2, r1
     28c:	75da      	strb	r2, [r3, #23]
	dir = Y;
     28e:	2100      	movs	r1, #0
     290:	4a05      	ldr	r2, [pc, #20]	; (2a8 <adc_interruptSet+0x2c>)
     292:	7111      	strb	r1, [r2, #4]
	ADC->INPUTCTRL.bit.MUXPOS = 0x02; // select joystick y dir
     294:	691a      	ldr	r2, [r3, #16]
     296:	311f      	adds	r1, #31
     298:	438a      	bics	r2, r1
     29a:	391d      	subs	r1, #29
     29c:	430a      	orrs	r2, r1
     29e:	611a      	str	r2, [r3, #16]
}
     2a0:	4770      	bx	lr
     2a2:	46c0      	nop			; (mov r8, r8)
     2a4:	42004000 	.word	0x42004000
     2a8:	20000450 	.word	0x20000450

000002ac <ADC_Handler>:
//     | .__/ |  \  .__/
//
//------------------------------------------------------------------------------
void ADC_Handler(void)
{
	if (ADC->INTFLAG.bit.RESRDY)
     2ac:	4b16      	ldr	r3, [pc, #88]	; (308 <ADC_Handler+0x5c>)
     2ae:	7e1b      	ldrb	r3, [r3, #24]
     2b0:	07db      	lsls	r3, r3, #31
     2b2:	d516      	bpl.n	2e2 <ADC_Handler+0x36>
	{
		ADC->INTFLAG.reg = ADC_INTFLAG_RESRDY; // clear flag
     2b4:	2201      	movs	r2, #1
     2b6:	4b14      	ldr	r3, [pc, #80]	; (308 <ADC_Handler+0x5c>)
     2b8:	761a      	strb	r2, [r3, #24]
		if (dir == Y)
     2ba:	4b14      	ldr	r3, [pc, #80]	; (30c <ADC_Handler+0x60>)
     2bc:	791b      	ldrb	r3, [r3, #4]
     2be:	2b00      	cmp	r3, #0
     2c0:	d110      	bne.n	2e4 <ADC_Handler+0x38>
		{
			y_val = ADC->RESULT.reg; // store result
     2c2:	4b11      	ldr	r3, [pc, #68]	; (308 <ADC_Handler+0x5c>)
     2c4:	8b5a      	ldrh	r2, [r3, #26]
     2c6:	b292      	uxth	r2, r2
     2c8:	4910      	ldr	r1, [pc, #64]	; (30c <ADC_Handler+0x60>)
     2ca:	800a      	strh	r2, [r1, #0]
			ADC->INPUTCTRL.bit.MUXPOS = 0x00; // Set ADC to read x dir
     2cc:	691a      	ldr	r2, [r3, #16]
     2ce:	201f      	movs	r0, #31
     2d0:	4382      	bics	r2, r0
     2d2:	611a      	str	r2, [r3, #16]
			dir = X; // switch state
     2d4:	2301      	movs	r3, #1
     2d6:	710b      	strb	r3, [r1, #4]
		{
			x_val = ADC->RESULT.reg; // store result
			ADC->INPUTCTRL.bit.MUXPOS = 0x02; // Set ADC to read y dir
			dir = Y; // switch state
		}
		ADC->SWTRIG.bit.START = 1; // Start next conversion
     2d8:	4a0b      	ldr	r2, [pc, #44]	; (308 <ADC_Handler+0x5c>)
     2da:	7b13      	ldrb	r3, [r2, #12]
     2dc:	2102      	movs	r1, #2
     2de:	430b      	orrs	r3, r1
     2e0:	7313      	strb	r3, [r2, #12]
	}
     2e2:	4770      	bx	lr
		else if (dir == X)
     2e4:	4b09      	ldr	r3, [pc, #36]	; (30c <ADC_Handler+0x60>)
     2e6:	791b      	ldrb	r3, [r3, #4]
     2e8:	2b01      	cmp	r3, #1
     2ea:	d1f5      	bne.n	2d8 <ADC_Handler+0x2c>
			x_val = ADC->RESULT.reg; // store result
     2ec:	4a06      	ldr	r2, [pc, #24]	; (308 <ADC_Handler+0x5c>)
     2ee:	8b53      	ldrh	r3, [r2, #26]
     2f0:	b29b      	uxth	r3, r3
     2f2:	4906      	ldr	r1, [pc, #24]	; (30c <ADC_Handler+0x60>)
     2f4:	804b      	strh	r3, [r1, #2]
			ADC->INPUTCTRL.bit.MUXPOS = 0x02; // Set ADC to read y dir
     2f6:	6913      	ldr	r3, [r2, #16]
     2f8:	201f      	movs	r0, #31
     2fa:	4383      	bics	r3, r0
     2fc:	381d      	subs	r0, #29
     2fe:	4303      	orrs	r3, r0
     300:	6113      	str	r3, [r2, #16]
			dir = Y; // switch state
     302:	2300      	movs	r3, #0
     304:	710b      	strb	r3, [r1, #4]
     306:	e7e7      	b.n	2d8 <ADC_Handler+0x2c>
     308:	42004000 	.word	0x42004000
     30c:	20000450 	.word	0x20000450

00000310 <buttons_init>:
     310:	4b0b      	ldr	r3, [pc, #44]	; (340 <buttons_init+0x30>)
     312:	20c9      	movs	r0, #201	; 0xc9
     314:	5c1a      	ldrb	r2, [r3, r0]
     316:	2102      	movs	r1, #2
     318:	430a      	orrs	r2, r1
     31a:	541a      	strb	r2, [r3, r0]
     31c:	3885      	subs	r0, #133	; 0x85
     31e:	5c1a      	ldrb	r2, [r3, r0]
     320:	430a      	orrs	r2, r1
     322:	541a      	strb	r2, [r3, r0]
     324:	3004      	adds	r0, #4
     326:	5c1a      	ldrb	r2, [r3, r0]
     328:	430a      	orrs	r2, r1
     32a:	541a      	strb	r2, [r3, r0]
     32c:	2180      	movs	r1, #128	; 0x80
     32e:	0089      	lsls	r1, r1, #2
     330:	2284      	movs	r2, #132	; 0x84
     332:	5099      	str	r1, [r3, r2]
     334:	3a74      	subs	r2, #116	; 0x74
     336:	605a      	str	r2, [r3, #4]
     338:	32f0      	adds	r2, #240	; 0xf0
     33a:	605a      	str	r2, [r3, #4]
     33c:	4770      	bx	lr
     33e:	46c0      	nop			; (mov r8, r8)
     340:	41004400 	.word	0x41004400

00000344 <buttons_get>:
     344:	0001      	movs	r1, r0
     346:	4a13      	ldr	r2, [pc, #76]	; (394 <buttons_get+0x50>)
     348:	23a0      	movs	r3, #160	; 0xa0
     34a:	58d3      	ldr	r3, [r2, r3]
     34c:	059b      	lsls	r3, r3, #22
     34e:	0fdb      	lsrs	r3, r3, #31
     350:	6a12      	ldr	r2, [r2, #32]
     352:	06d2      	lsls	r2, r2, #27
     354:	d500      	bpl.n	358 <buttons_get+0x14>
     356:	3302      	adds	r3, #2
     358:	4a0e      	ldr	r2, [pc, #56]	; (394 <buttons_get+0x50>)
     35a:	6a12      	ldr	r2, [r2, #32]
     35c:	2000      	movs	r0, #0
     35e:	05d2      	lsls	r2, r2, #23
     360:	d504      	bpl.n	36c <buttons_get+0x28>
     362:	2900      	cmp	r1, #0
     364:	d103      	bne.n	36e <buttons_get+0x2a>
     366:	4258      	negs	r0, r3
     368:	4143      	adcs	r3, r0
     36a:	b2d8      	uxtb	r0, r3
     36c:	4770      	bx	lr
     36e:	2901      	cmp	r1, #1
     370:	d006      	beq.n	380 <buttons_get+0x3c>
     372:	2902      	cmp	r1, #2
     374:	d009      	beq.n	38a <buttons_get+0x46>
     376:	3b03      	subs	r3, #3
     378:	4258      	negs	r0, r3
     37a:	4143      	adcs	r3, r0
     37c:	b2d8      	uxtb	r0, r3
     37e:	e7f5      	b.n	36c <buttons_get+0x28>
     380:	3b01      	subs	r3, #1
     382:	4258      	negs	r0, r3
     384:	4143      	adcs	r3, r0
     386:	b2d8      	uxtb	r0, r3
     388:	e7f0      	b.n	36c <buttons_get+0x28>
     38a:	3b02      	subs	r3, #2
     38c:	4258      	negs	r0, r3
     38e:	4143      	adcs	r3, r0
     390:	b2d8      	uxtb	r0, r3
     392:	e7eb      	b.n	36c <buttons_get+0x28>
     394:	41004400 	.word	0x41004400

00000398 <counter_enable>:
     398:	4a04      	ldr	r2, [pc, #16]	; (3ac <counter_enable+0x14>)
     39a:	8813      	ldrh	r3, [r2, #0]
     39c:	2102      	movs	r1, #2
     39e:	430b      	orrs	r3, r1
     3a0:	8013      	strh	r3, [r2, #0]
     3a2:	7bd3      	ldrb	r3, [r2, #15]
     3a4:	09db      	lsrs	r3, r3, #7
     3a6:	d1fc      	bne.n	3a2 <counter_enable+0xa>
     3a8:	4770      	bx	lr
     3aa:	46c0      	nop			; (mov r8, r8)
     3ac:	42002c00 	.word	0x42002c00

000003b0 <counter_disable>:
     3b0:	4a04      	ldr	r2, [pc, #16]	; (3c4 <counter_disable+0x14>)
     3b2:	8813      	ldrh	r3, [r2, #0]
     3b4:	2102      	movs	r1, #2
     3b6:	438b      	bics	r3, r1
     3b8:	8013      	strh	r3, [r2, #0]
     3ba:	7bd3      	ldrb	r3, [r2, #15]
     3bc:	09db      	lsrs	r3, r3, #7
     3be:	d1fc      	bne.n	3ba <counter_disable+0xa>
     3c0:	4770      	bx	lr
     3c2:	46c0      	nop			; (mov r8, r8)
     3c4:	42002c00 	.word	0x42002c00

000003c8 <counter_init>:
     3c8:	b510      	push	{r4, lr}
     3ca:	4a1f      	ldr	r2, [pc, #124]	; (448 <counter_init+0x80>)
     3cc:	6a11      	ldr	r1, [r2, #32]
     3ce:	2380      	movs	r3, #128	; 0x80
     3d0:	011b      	lsls	r3, r3, #4
     3d2:	430b      	orrs	r3, r1
     3d4:	6213      	str	r3, [r2, #32]
     3d6:	4b1d      	ldr	r3, [pc, #116]	; (44c <counter_init+0x84>)
     3d8:	2280      	movs	r2, #128	; 0x80
     3da:	609a      	str	r2, [r3, #8]
     3dc:	2280      	movs	r2, #128	; 0x80
     3de:	01d2      	lsls	r2, r2, #7
     3e0:	609a      	str	r2, [r3, #8]
     3e2:	4a1b      	ldr	r2, [pc, #108]	; (450 <counter_init+0x88>)
     3e4:	4b1b      	ldr	r3, [pc, #108]	; (454 <counter_init+0x8c>)
     3e6:	805a      	strh	r2, [r3, #2]
     3e8:	001a      	movs	r2, r3
     3ea:	7853      	ldrb	r3, [r2, #1]
     3ec:	b25b      	sxtb	r3, r3
     3ee:	2b00      	cmp	r3, #0
     3f0:	dbfb      	blt.n	3ea <counter_init+0x22>
     3f2:	4b19      	ldr	r3, [pc, #100]	; (458 <counter_init+0x90>)
     3f4:	4798      	blx	r3
     3f6:	4a19      	ldr	r2, [pc, #100]	; (45c <counter_init+0x94>)
     3f8:	8813      	ldrh	r3, [r2, #0]
     3fa:	2101      	movs	r1, #1
     3fc:	430b      	orrs	r3, r1
     3fe:	8013      	strh	r3, [r2, #0]
     400:	8813      	ldrh	r3, [r2, #0]
     402:	07db      	lsls	r3, r3, #31
     404:	d4fc      	bmi.n	400 <counter_init+0x38>
     406:	7bd3      	ldrb	r3, [r2, #15]
     408:	09db      	lsrs	r3, r3, #7
     40a:	d1f9      	bne.n	400 <counter_init+0x38>
     40c:	4b13      	ldr	r3, [pc, #76]	; (45c <counter_init+0x94>)
     40e:	881a      	ldrh	r2, [r3, #0]
     410:	210c      	movs	r1, #12
     412:	438a      	bics	r2, r1
     414:	801a      	strh	r2, [r3, #0]
     416:	881a      	ldrh	r2, [r3, #0]
     418:	3154      	adds	r1, #84	; 0x54
     41a:	438a      	bics	r2, r1
     41c:	2120      	movs	r1, #32
     41e:	430a      	orrs	r2, r1
     420:	801a      	strh	r2, [r3, #0]
     422:	2296      	movs	r2, #150	; 0x96
     424:	831a      	strh	r2, [r3, #24]
     426:	895a      	ldrh	r2, [r3, #10]
     428:	2007      	movs	r0, #7
     42a:	4382      	bics	r2, r0
     42c:	2002      	movs	r0, #2
     42e:	4302      	orrs	r2, r0
     430:	815a      	strh	r2, [r3, #10]
     432:	895a      	ldrh	r2, [r3, #10]
     434:	430a      	orrs	r2, r1
     436:	815a      	strh	r2, [r3, #10]
     438:	2201      	movs	r2, #1
     43a:	735a      	strb	r2, [r3, #13]
     43c:	2280      	movs	r2, #128	; 0x80
     43e:	02d2      	lsls	r2, r2, #11
     440:	4b07      	ldr	r3, [pc, #28]	; (460 <counter_init+0x98>)
     442:	601a      	str	r2, [r3, #0]
     444:	bd10      	pop	{r4, pc}
     446:	46c0      	nop			; (mov r8, r8)
     448:	40000400 	.word	0x40000400
     44c:	41004400 	.word	0x41004400
     450:	0000401b 	.word	0x0000401b
     454:	40000c00 	.word	0x40000c00
     458:	000003b1 	.word	0x000003b1
     45c:	42002c00 	.word	0x42002c00
     460:	e000e100 	.word	0xe000e100

00000464 <counter_flagGet>:
     464:	4b01      	ldr	r3, [pc, #4]	; (46c <counter_flagGet+0x8>)
     466:	7818      	ldrb	r0, [r3, #0]
     468:	b2c0      	uxtb	r0, r0
     46a:	4770      	bx	lr
     46c:	20000455 	.word	0x20000455

00000470 <counter_flagSet>:
  __ASM volatile ("cpsid i" : : : "memory");
     470:	b672      	cpsid	i
     472:	4b02      	ldr	r3, [pc, #8]	; (47c <counter_flagSet+0xc>)
     474:	7018      	strb	r0, [r3, #0]
  __ASM volatile ("cpsie i" : : : "memory");
     476:	b662      	cpsie	i
     478:	4770      	bx	lr
     47a:	46c0      	nop			; (mov r8, r8)
     47c:	20000455 	.word	0x20000455

00000480 <TC3_Handler>:
     480:	b510      	push	{r4, lr}
     482:	4b0d      	ldr	r3, [pc, #52]	; (4b8 <TC3_Handler+0x38>)
     484:	7b9b      	ldrb	r3, [r3, #14]
     486:	07db      	lsls	r3, r3, #31
     488:	d400      	bmi.n	48c <TC3_Handler+0xc>
     48a:	bd10      	pop	{r4, pc}
     48c:	2201      	movs	r2, #1
     48e:	4b0a      	ldr	r3, [pc, #40]	; (4b8 <TC3_Handler+0x38>)
     490:	739a      	strb	r2, [r3, #14]
     492:	327f      	adds	r2, #127	; 0x7f
     494:	4b09      	ldr	r3, [pc, #36]	; (4bc <TC3_Handler+0x3c>)
     496:	619a      	str	r2, [r3, #24]
     498:	4b09      	ldr	r3, [pc, #36]	; (4c0 <TC3_Handler+0x40>)
     49a:	4798      	blx	r3
     49c:	2800      	cmp	r0, #0
     49e:	d004      	beq.n	4aa <TC3_Handler+0x2a>
     4a0:	4b06      	ldr	r3, [pc, #24]	; (4bc <TC3_Handler+0x3c>)
     4a2:	2280      	movs	r2, #128	; 0x80
     4a4:	01d2      	lsls	r2, r2, #7
     4a6:	619a      	str	r2, [r3, #24]
     4a8:	615a      	str	r2, [r3, #20]
     4aa:	2280      	movs	r2, #128	; 0x80
     4ac:	4b03      	ldr	r3, [pc, #12]	; (4bc <TC3_Handler+0x3c>)
     4ae:	615a      	str	r2, [r3, #20]
     4b0:	2001      	movs	r0, #1
     4b2:	4b04      	ldr	r3, [pc, #16]	; (4c4 <TC3_Handler+0x44>)
     4b4:	4798      	blx	r3
     4b6:	e7e8      	b.n	48a <TC3_Handler+0xa>
     4b8:	42002c00 	.word	0x42002c00
     4bc:	41004400 	.word	0x41004400
     4c0:	00001225 	.word	0x00001225
     4c4:	00000471 	.word	0x00000471

000004c8 <Dummy_Handler>:
     4c8:	e7fe      	b.n	4c8 <Dummy_Handler>
	...

000004cc <Reset_Handler>:
     4cc:	b5f8      	push	{r3, r4, r5, r6, r7, lr}
     4ce:	4a2a      	ldr	r2, [pc, #168]	; (578 <Reset_Handler+0xac>)
     4d0:	4b2a      	ldr	r3, [pc, #168]	; (57c <Reset_Handler+0xb0>)
     4d2:	429a      	cmp	r2, r3
     4d4:	d011      	beq.n	4fa <Reset_Handler+0x2e>
     4d6:	001a      	movs	r2, r3
     4d8:	4b29      	ldr	r3, [pc, #164]	; (580 <Reset_Handler+0xb4>)
     4da:	429a      	cmp	r2, r3
     4dc:	d20d      	bcs.n	4fa <Reset_Handler+0x2e>
     4de:	4a29      	ldr	r2, [pc, #164]	; (584 <Reset_Handler+0xb8>)
     4e0:	3303      	adds	r3, #3
     4e2:	1a9b      	subs	r3, r3, r2
     4e4:	089b      	lsrs	r3, r3, #2
     4e6:	3301      	adds	r3, #1
     4e8:	009b      	lsls	r3, r3, #2
     4ea:	2200      	movs	r2, #0
     4ec:	4823      	ldr	r0, [pc, #140]	; (57c <Reset_Handler+0xb0>)
     4ee:	4922      	ldr	r1, [pc, #136]	; (578 <Reset_Handler+0xac>)
     4f0:	588c      	ldr	r4, [r1, r2]
     4f2:	5084      	str	r4, [r0, r2]
     4f4:	3204      	adds	r2, #4
     4f6:	429a      	cmp	r2, r3
     4f8:	d1fa      	bne.n	4f0 <Reset_Handler+0x24>
     4fa:	4a23      	ldr	r2, [pc, #140]	; (588 <Reset_Handler+0xbc>)
     4fc:	4b23      	ldr	r3, [pc, #140]	; (58c <Reset_Handler+0xc0>)
     4fe:	429a      	cmp	r2, r3
     500:	d20a      	bcs.n	518 <Reset_Handler+0x4c>
     502:	43d3      	mvns	r3, r2
     504:	4921      	ldr	r1, [pc, #132]	; (58c <Reset_Handler+0xc0>)
     506:	185b      	adds	r3, r3, r1
     508:	2103      	movs	r1, #3
     50a:	438b      	bics	r3, r1
     50c:	3304      	adds	r3, #4
     50e:	189b      	adds	r3, r3, r2
     510:	2100      	movs	r1, #0
     512:	c202      	stmia	r2!, {r1}
     514:	4293      	cmp	r3, r2
     516:	d1fc      	bne.n	512 <Reset_Handler+0x46>
     518:	4a1d      	ldr	r2, [pc, #116]	; (590 <Reset_Handler+0xc4>)
     51a:	21ff      	movs	r1, #255	; 0xff
     51c:	4b1d      	ldr	r3, [pc, #116]	; (594 <Reset_Handler+0xc8>)
     51e:	438b      	bics	r3, r1
     520:	6093      	str	r3, [r2, #8]
     522:	39fd      	subs	r1, #253	; 0xfd
     524:	2390      	movs	r3, #144	; 0x90
     526:	005b      	lsls	r3, r3, #1
     528:	4a1b      	ldr	r2, [pc, #108]	; (598 <Reset_Handler+0xcc>)
     52a:	50d1      	str	r1, [r2, r3]
     52c:	4a1b      	ldr	r2, [pc, #108]	; (59c <Reset_Handler+0xd0>)
     52e:	78d3      	ldrb	r3, [r2, #3]
     530:	2503      	movs	r5, #3
     532:	43ab      	bics	r3, r5
     534:	2402      	movs	r4, #2
     536:	4323      	orrs	r3, r4
     538:	70d3      	strb	r3, [r2, #3]
     53a:	78d3      	ldrb	r3, [r2, #3]
     53c:	270c      	movs	r7, #12
     53e:	43bb      	bics	r3, r7
     540:	2608      	movs	r6, #8
     542:	4333      	orrs	r3, r6
     544:	70d3      	strb	r3, [r2, #3]
     546:	4b16      	ldr	r3, [pc, #88]	; (5a0 <Reset_Handler+0xd4>)
     548:	7b98      	ldrb	r0, [r3, #14]
     54a:	2230      	movs	r2, #48	; 0x30
     54c:	4390      	bics	r0, r2
     54e:	2220      	movs	r2, #32
     550:	4310      	orrs	r0, r2
     552:	7398      	strb	r0, [r3, #14]
     554:	7b99      	ldrb	r1, [r3, #14]
     556:	43b9      	bics	r1, r7
     558:	4331      	orrs	r1, r6
     55a:	7399      	strb	r1, [r3, #14]
     55c:	7b9a      	ldrb	r2, [r3, #14]
     55e:	43aa      	bics	r2, r5
     560:	4322      	orrs	r2, r4
     562:	739a      	strb	r2, [r3, #14]
     564:	4a0f      	ldr	r2, [pc, #60]	; (5a4 <Reset_Handler+0xd8>)
     566:	6853      	ldr	r3, [r2, #4]
     568:	2180      	movs	r1, #128	; 0x80
     56a:	430b      	orrs	r3, r1
     56c:	6053      	str	r3, [r2, #4]
     56e:	4b0e      	ldr	r3, [pc, #56]	; (5a8 <Reset_Handler+0xdc>)
     570:	4798      	blx	r3
     572:	4b0e      	ldr	r3, [pc, #56]	; (5ac <Reset_Handler+0xe0>)
     574:	4798      	blx	r3
     576:	e7fe      	b.n	576 <Reset_Handler+0xaa>
     578:	000022d0 	.word	0x000022d0
     57c:	20000000 	.word	0x20000000
     580:	20000434 	.word	0x20000434
     584:	20000004 	.word	0x20000004
     588:	20000434 	.word	0x20000434
     58c:	200004c4 	.word	0x200004c4
     590:	e000ed00 	.word	0xe000ed00
     594:	00000000 	.word	0x00000000
     598:	41007000 	.word	0x41007000
     59c:	41005000 	.word	0x41005000
     5a0:	41004800 	.word	0x41004800
     5a4:	41004000 	.word	0x41004000
     5a8:	00001499 	.word	0x00001499
     5ac:	00000779 	.word	0x00000779

000005b0 <SystemInit>:
 *         Initialize the System and update the SystemCoreClock variable.
 */
void SystemInit(void)
{
        // Keep the default device state after reset
        SystemCoreClock = __SYSTEM_CLOCK;
     5b0:	4a01      	ldr	r2, [pc, #4]	; (5b8 <SystemInit+0x8>)
     5b2:	4b02      	ldr	r3, [pc, #8]	; (5bc <SystemInit+0xc>)
     5b4:	601a      	str	r2, [r3, #0]
        return;
}
     5b6:	4770      	bx	lr
     5b8:	000f4240 	.word	0x000f4240
     5bc:	20000000 	.word	0x20000000

000005c0 <event_init>:
     5c0:	4a0b      	ldr	r2, [pc, #44]	; (5f0 <event_init+0x30>)
     5c2:	6a13      	ldr	r3, [r2, #32]
     5c4:	2102      	movs	r1, #2
     5c6:	430b      	orrs	r3, r1
     5c8:	6213      	str	r3, [r2, #32]
     5ca:	4a0a      	ldr	r2, [pc, #40]	; (5f4 <event_init+0x34>)
     5cc:	4b0a      	ldr	r3, [pc, #40]	; (5f8 <event_init+0x38>)
     5ce:	805a      	strh	r2, [r3, #2]
     5d0:	001a      	movs	r2, r3
     5d2:	7853      	ldrb	r3, [r2, #1]
     5d4:	b25b      	sxtb	r3, r3
     5d6:	2b00      	cmp	r3, #0
     5d8:	dbfb      	blt.n	5d2 <event_init+0x12>
     5da:	4b08      	ldr	r3, [pc, #32]	; (5fc <event_init+0x3c>)
     5dc:	781a      	ldrb	r2, [r3, #0]
     5de:	2101      	movs	r1, #1
     5e0:	430a      	orrs	r2, r1
     5e2:	701a      	strb	r2, [r3, #0]
     5e4:	2289      	movs	r2, #137	; 0x89
     5e6:	0052      	lsls	r2, r2, #1
     5e8:	811a      	strh	r2, [r3, #8]
     5ea:	4a05      	ldr	r2, [pc, #20]	; (600 <event_init+0x40>)
     5ec:	605a      	str	r2, [r3, #4]
     5ee:	4770      	bx	lr
     5f0:	40000400 	.word	0x40000400
     5f4:	00004007 	.word	0x00004007
     5f8:	40000c00 	.word	0x40000c00
     5fc:	42000400 	.word	0x42000400
     600:	06250000 	.word	0x06250000

00000604 <EVSYS_Handler>:
     604:	4b04      	ldr	r3, [pc, #16]	; (618 <EVSYS_Handler+0x14>)
     606:	699b      	ldr	r3, [r3, #24]
     608:	05db      	lsls	r3, r3, #23
     60a:	d503      	bpl.n	614 <EVSYS_Handler+0x10>
     60c:	2280      	movs	r2, #128	; 0x80
     60e:	0052      	lsls	r2, r2, #1
     610:	4b01      	ldr	r3, [pc, #4]	; (618 <EVSYS_Handler+0x14>)
     612:	619a      	str	r2, [r3, #24]
     614:	4770      	bx	lr
     616:	46c0      	nop			; (mov r8, r8)
     618:	42000400 	.word	0x42000400

0000061c <pack12to8>:
     61c:	b5f0      	push	{r4, r5, r6, r7, lr}
     61e:	46ce      	mov	lr, r9
     620:	4647      	mov	r7, r8
     622:	b580      	push	{r7, lr}
     624:	4694      	mov	ip, r2
     626:	2a00      	cmp	r2, #0
     628:	d01e      	beq.n	668 <pack12to8+0x4c>
     62a:	2600      	movs	r6, #0
     62c:	2500      	movs	r5, #0
     62e:	0073      	lsls	r3, r6, #1
     630:	18c4      	adds	r4, r0, r3
     632:	8822      	ldrh	r2, [r4, #0]
     634:	0912      	lsrs	r2, r2, #4
     636:	554a      	strb	r2, [r1, r5]
     638:	1caf      	adds	r7, r5, #2
     63a:	b2bf      	uxth	r7, r7
     63c:	3302      	adds	r3, #2
     63e:	18c3      	adds	r3, r0, r3
     640:	1c6a      	adds	r2, r5, #1
     642:	b292      	uxth	r2, r2
     644:	4691      	mov	r9, r2
     646:	8824      	ldrh	r4, [r4, #0]
     648:	0124      	lsls	r4, r4, #4
     64a:	46a0      	mov	r8, r4
     64c:	881c      	ldrh	r4, [r3, #0]
     64e:	0a24      	lsrs	r4, r4, #8
     650:	4642      	mov	r2, r8
     652:	4314      	orrs	r4, r2
     654:	464a      	mov	r2, r9
     656:	548c      	strb	r4, [r1, r2]
     658:	3503      	adds	r5, #3
     65a:	b2ad      	uxth	r5, r5
     65c:	881b      	ldrh	r3, [r3, #0]
     65e:	55cb      	strb	r3, [r1, r7]
     660:	3602      	adds	r6, #2
     662:	b2b6      	uxth	r6, r6
     664:	45b4      	cmp	ip, r6
     666:	d8e2      	bhi.n	62e <pack12to8+0x12>
     668:	bc0c      	pop	{r2, r3}
     66a:	4690      	mov	r8, r2
     66c:	4699      	mov	r9, r3
     66e:	bdf0      	pop	{r4, r5, r6, r7, pc}

00000670 <led_init>:
     670:	4904      	ldr	r1, [pc, #16]	; (684 <led_init+0x14>)
     672:	680b      	ldr	r3, [r1, #0]
     674:	2280      	movs	r2, #128	; 0x80
     676:	0292      	lsls	r2, r2, #10
     678:	4313      	orrs	r3, r2
     67a:	600b      	str	r3, [r1, #0]
     67c:	4b02      	ldr	r3, [pc, #8]	; (688 <led_init+0x18>)
     67e:	601a      	str	r2, [r3, #0]
     680:	4770      	bx	lr
     682:	46c0      	nop			; (mov r8, r8)
     684:	41004400 	.word	0x41004400
     688:	41004418 	.word	0x41004418

0000068c <led_write>:
     68c:	b510      	push	{r4, lr}
     68e:	2805      	cmp	r0, #5
     690:	d807      	bhi.n	6a2 <led_write+0x16>
     692:	0080      	lsls	r0, r0, #2
     694:	4c10      	ldr	r4, [pc, #64]	; (6d8 <led_write+0x4c>)
     696:	5820      	ldr	r0, [r4, r0]
     698:	4687      	mov	pc, r0
     69a:	4810      	ldr	r0, [pc, #64]	; (6dc <led_write+0x50>)
     69c:	83c1      	strh	r1, [r0, #30]
     69e:	8382      	strh	r2, [r0, #28]
     6a0:	8343      	strh	r3, [r0, #26]
     6a2:	480e      	ldr	r0, [pc, #56]	; (6dc <led_write+0x50>)
     6a4:	0001      	movs	r1, r0
     6a6:	3120      	adds	r1, #32
     6a8:	2210      	movs	r2, #16
     6aa:	4b0d      	ldr	r3, [pc, #52]	; (6e0 <led_write+0x54>)
     6ac:	4798      	blx	r3
     6ae:	bd10      	pop	{r4, pc}
     6b0:	480a      	ldr	r0, [pc, #40]	; (6dc <led_write+0x50>)
     6b2:	8301      	strh	r1, [r0, #24]
     6b4:	82c2      	strh	r2, [r0, #22]
     6b6:	8283      	strh	r3, [r0, #20]
     6b8:	e7f3      	b.n	6a2 <led_write+0x16>
     6ba:	4808      	ldr	r0, [pc, #32]	; (6dc <led_write+0x50>)
     6bc:	8241      	strh	r1, [r0, #18]
     6be:	8202      	strh	r2, [r0, #16]
     6c0:	81c3      	strh	r3, [r0, #14]
     6c2:	e7ee      	b.n	6a2 <led_write+0x16>
     6c4:	4805      	ldr	r0, [pc, #20]	; (6dc <led_write+0x50>)
     6c6:	8181      	strh	r1, [r0, #12]
     6c8:	8142      	strh	r2, [r0, #10]
     6ca:	8103      	strh	r3, [r0, #8]
     6cc:	e7e9      	b.n	6a2 <led_write+0x16>
     6ce:	4803      	ldr	r0, [pc, #12]	; (6dc <led_write+0x50>)
     6d0:	80c1      	strh	r1, [r0, #6]
     6d2:	8082      	strh	r2, [r0, #4]
     6d4:	8043      	strh	r3, [r0, #2]
     6d6:	e7e4      	b.n	6a2 <led_write+0x16>
     6d8:	00001638 	.word	0x00001638
     6dc:	20000458 	.word	0x20000458
     6e0:	0000061d 	.word	0x0000061d

000006e4 <led_writeAll>:
     6e4:	b510      	push	{r4, lr}
     6e6:	4b0b      	ldr	r3, [pc, #44]	; (714 <led_writeAll+0x30>)
     6e8:	83d8      	strh	r0, [r3, #30]
     6ea:	8318      	strh	r0, [r3, #24]
     6ec:	8258      	strh	r0, [r3, #18]
     6ee:	8198      	strh	r0, [r3, #12]
     6f0:	80d8      	strh	r0, [r3, #6]
     6f2:	8399      	strh	r1, [r3, #28]
     6f4:	82d9      	strh	r1, [r3, #22]
     6f6:	8219      	strh	r1, [r3, #16]
     6f8:	8159      	strh	r1, [r3, #10]
     6fa:	8099      	strh	r1, [r3, #4]
     6fc:	835a      	strh	r2, [r3, #26]
     6fe:	829a      	strh	r2, [r3, #20]
     700:	81da      	strh	r2, [r3, #14]
     702:	811a      	strh	r2, [r3, #8]
     704:	805a      	strh	r2, [r3, #2]
     706:	0019      	movs	r1, r3
     708:	3120      	adds	r1, #32
     70a:	2210      	movs	r2, #16
     70c:	0018      	movs	r0, r3
     70e:	4b02      	ldr	r3, [pc, #8]	; (718 <led_writeAll+0x34>)
     710:	4798      	blx	r3
     712:	bd10      	pop	{r4, pc}
     714:	20000458 	.word	0x20000458
     718:	0000061d 	.word	0x0000061d

0000071c <calculate_adc>:
//     |    |  \ |  \/  /~~\  |  |___
//
//-----------------------------------------------------------------------------

static uint8_t calculate_adc()
{
     71c:	b510      	push	{r4, lr}
	uint8_t step;
	if (adc_get() < 100) // joystick at max up
     71e:	4b10      	ldr	r3, [pc, #64]	; (760 <calculate_adc+0x44>)
     720:	4798      	blx	r3
	{
		step = 36;
     722:	2324      	movs	r3, #36	; 0x24
	if (adc_get() < 100) // joystick at max up
     724:	2863      	cmp	r0, #99	; 0x63
     726:	d801      	bhi.n	72c <calculate_adc+0x10>
	{
		step = (adc_get() / 4095) * 36;
	}
	
	return step;
}
     728:	0018      	movs	r0, r3
     72a:	bd10      	pop	{r4, pc}
	else if (adc_get() > 3095) // joystick at max down
     72c:	4b0c      	ldr	r3, [pc, #48]	; (760 <calculate_adc+0x44>)
     72e:	4798      	blx	r3
     730:	4a0c      	ldr	r2, [pc, #48]	; (764 <calculate_adc+0x48>)
		step = 1;
     732:	2301      	movs	r3, #1
	else if (adc_get() > 3095) // joystick at max down
     734:	4290      	cmp	r0, r2
     736:	d8f7      	bhi.n	728 <calculate_adc+0xc>
	else if ((adc_get() > 1950) && (adc_get() < 2150))// joystick neutral
     738:	4b09      	ldr	r3, [pc, #36]	; (760 <calculate_adc+0x44>)
     73a:	4798      	blx	r3
     73c:	4b0a      	ldr	r3, [pc, #40]	; (768 <calculate_adc+0x4c>)
     73e:	4298      	cmp	r0, r3
     740:	d905      	bls.n	74e <calculate_adc+0x32>
     742:	4b07      	ldr	r3, [pc, #28]	; (760 <calculate_adc+0x44>)
     744:	4798      	blx	r3
     746:	4a09      	ldr	r2, [pc, #36]	; (76c <calculate_adc+0x50>)
		step = 6;
     748:	2306      	movs	r3, #6
	else if ((adc_get() > 1950) && (adc_get() < 2150))// joystick neutral
     74a:	4290      	cmp	r0, r2
     74c:	d9ec      	bls.n	728 <calculate_adc+0xc>
		step = (adc_get() / 4095) * 36;
     74e:	4b04      	ldr	r3, [pc, #16]	; (760 <calculate_adc+0x44>)
     750:	4798      	blx	r3
     752:	4907      	ldr	r1, [pc, #28]	; (770 <calculate_adc+0x54>)
     754:	4b07      	ldr	r3, [pc, #28]	; (774 <calculate_adc+0x58>)
     756:	4798      	blx	r3
     758:	2324      	movs	r3, #36	; 0x24
     75a:	4343      	muls	r3, r0
     75c:	b2db      	uxtb	r3, r3
     75e:	e7e3      	b.n	728 <calculate_adc+0xc>
     760:	00000215 	.word	0x00000215
     764:	00000c17 	.word	0x00000c17
     768:	0000079e 	.word	0x0000079e
     76c:	00000865 	.word	0x00000865
     770:	00000fff 	.word	0x00000fff
     774:	00001381 	.word	0x00001381

00000778 <main>:
{
     778:	b5f0      	push	{r4, r5, r6, r7, lr}
     77a:	46de      	mov	lr, fp
     77c:	4657      	mov	r7, sl
     77e:	464e      	mov	r6, r9
     780:	4645      	mov	r5, r8
     782:	b5e0      	push	{r5, r6, r7, lr}
     784:	b08d      	sub	sp, #52	; 0x34
	SystemInit();
     786:	4bd1      	ldr	r3, [pc, #836]	; (acc <main+0x354>)
     788:	4798      	blx	r3
  if ((ticks - 1UL) > SysTick_LOAD_RELOAD_Msk)
  {
    return (1UL);                                                   /* Reload value impossible */
  }

  SysTick->LOAD  = (uint32_t)(ticks - 1UL);                         /* set reload register */
     78a:	4ad1      	ldr	r2, [pc, #836]	; (ad0 <main+0x358>)
     78c:	4bd1      	ldr	r3, [pc, #836]	; (ad4 <main+0x35c>)
     78e:	6053      	str	r3, [r2, #4]
    SCB->SHP[_SHP_IDX(IRQn)] = ((uint32_t)(SCB->SHP[_SHP_IDX(IRQn)] & ~(0xFFUL << _BIT_SHIFT(IRQn))) |
     790:	48d1      	ldr	r0, [pc, #836]	; (ad8 <main+0x360>)
     792:	6a03      	ldr	r3, [r0, #32]
     794:	021b      	lsls	r3, r3, #8
     796:	0a1b      	lsrs	r3, r3, #8
     798:	21c0      	movs	r1, #192	; 0xc0
     79a:	0609      	lsls	r1, r1, #24
     79c:	430b      	orrs	r3, r1
     79e:	6203      	str	r3, [r0, #32]
  NVIC_SetPriority (SysTick_IRQn, (1UL << __NVIC_PRIO_BITS) - 1UL); /* set Priority for Systick Interrupt */
  SysTick->VAL   = 0UL;                                             /* Load the SysTick Counter Value */
     7a0:	2300      	movs	r3, #0
     7a2:	6093      	str	r3, [r2, #8]
  SysTick->CTRL  = SysTick_CTRL_CLKSOURCE_Msk |
     7a4:	3307      	adds	r3, #7
     7a6:	6013      	str	r3, [r2, #0]
	led_init();
     7a8:	4bcc      	ldr	r3, [pc, #816]	; (adc <main+0x364>)
     7aa:	4798      	blx	r3
	timer_init();
     7ac:	4bcc      	ldr	r3, [pc, #816]	; (ae0 <main+0x368>)
     7ae:	4798      	blx	r3
	counter_init();
     7b0:	4bcc      	ldr	r3, [pc, #816]	; (ae4 <main+0x36c>)
     7b2:	4798      	blx	r3
	spi_init();
     7b4:	4bcc      	ldr	r3, [pc, #816]	; (ae8 <main+0x370>)
     7b6:	4798      	blx	r3
	event_init();
     7b8:	4bcc      	ldr	r3, [pc, #816]	; (aec <main+0x374>)
     7ba:	4798      	blx	r3
	buttons_init();
     7bc:	4bcc      	ldr	r3, [pc, #816]	; (af0 <main+0x378>)
     7be:	4798      	blx	r3
	adc_init();
     7c0:	4bcc      	ldr	r3, [pc, #816]	; (af4 <main+0x37c>)
     7c2:	4798      	blx	r3
	timer_enable();
     7c4:	4bcc      	ldr	r3, [pc, #816]	; (af8 <main+0x380>)
     7c6:	4798      	blx	r3
	counter_enable();
     7c8:	4bcc      	ldr	r3, [pc, #816]	; (afc <main+0x384>)
     7ca:	4798      	blx	r3
	adc_reset();
     7cc:	4bcc      	ldr	r3, [pc, #816]	; (b00 <main+0x388>)
     7ce:	4798      	blx	r3
	led_writeAll(0, 0, 0);
     7d0:	2200      	movs	r2, #0
     7d2:	2100      	movs	r1, #0
     7d4:	2000      	movs	r0, #0
     7d6:	4bcb      	ldr	r3, [pc, #812]	; (b04 <main+0x38c>)
     7d8:	4798      	blx	r3
	spi_write();
     7da:	4bcb      	ldr	r3, [pc, #812]	; (b08 <main+0x390>)
     7dc:	4798      	blx	r3
	uint32_t old_millis = 0;
     7de:	2300      	movs	r3, #0
     7e0:	4698      	mov	r8, r3
		while (mode == 1)
     7e2:	4bca      	ldr	r3, [pc, #808]	; (b0c <main+0x394>)
     7e4:	469a      	mov	sl, r3
			if ((millis - old_millis) > 20) // button debounce
     7e6:	4699      	mov	r9, r3
     7e8:	4646      	mov	r6, r8
     7ea:	e008      	b.n	7fe <main+0x86>
			if ((millis - old_millis) > 20) // button debounce
     7ec:	4bc7      	ldr	r3, [pc, #796]	; (b0c <main+0x394>)
     7ee:	681b      	ldr	r3, [r3, #0]
     7f0:	1b9b      	subs	r3, r3, r6
     7f2:	2b14      	cmp	r3, #20
     7f4:	d809      	bhi.n	80a <main+0x92>
			if (counter_flagGet()) // if flag set
     7f6:	4bc6      	ldr	r3, [pc, #792]	; (b10 <main+0x398>)
     7f8:	4798      	blx	r3
     7fa:	2800      	cmp	r0, #0
     7fc:	d13a      	bne.n	874 <main+0xfc>
		while (mode == 0)
     7fe:	4bc3      	ldr	r3, [pc, #780]	; (b0c <main+0x394>)
     800:	791b      	ldrb	r3, [r3, #4]
     802:	2b00      	cmp	r3, #0
     804:	d0f2      	beq.n	7ec <main+0x74>
			if ((millis - old_millis) > 20)
     806:	4dc1      	ldr	r5, [pc, #772]	; (b0c <main+0x394>)
     808:	e0fe      	b.n	a08 <main+0x290>
				if (buttons_get(1)) // if button 1 pressed
     80a:	2001      	movs	r0, #1
     80c:	4bc1      	ldr	r3, [pc, #772]	; (b14 <main+0x39c>)
     80e:	4798      	blx	r3
     810:	2800      	cmp	r0, #0
     812:	d115      	bne.n	840 <main+0xc8>
				if (buttons_get(2))
     814:	2002      	movs	r0, #2
     816:	4bbf      	ldr	r3, [pc, #764]	; (b14 <main+0x39c>)
     818:	4798      	blx	r3
     81a:	2800      	cmp	r0, #0
     81c:	d0eb      	beq.n	7f6 <main+0x7e>
					old_millis = millis;
     81e:	4cbb      	ldr	r4, [pc, #748]	; (b0c <main+0x394>)
     820:	6826      	ldr	r6, [r4, #0]
					adc_interruptSet();
     822:	4bbd      	ldr	r3, [pc, #756]	; (b18 <main+0x3a0>)
     824:	4798      	blx	r3
					mode = 2;
     826:	2302      	movs	r3, #2
     828:	7123      	strb	r3, [r4, #4]
					led_writeAll(0, 0, 0);
     82a:	2200      	movs	r2, #0
     82c:	2100      	movs	r1, #0
     82e:	2000      	movs	r0, #0
     830:	4bb4      	ldr	r3, [pc, #720]	; (b04 <main+0x38c>)
     832:	4798      	blx	r3
					spi_write();
     834:	4bb4      	ldr	r3, [pc, #720]	; (b08 <main+0x390>)
     836:	4798      	blx	r3
					counter_flagSet(0);
     838:	2000      	movs	r0, #0
     83a:	4bb8      	ldr	r3, [pc, #736]	; (b1c <main+0x3a4>)
     83c:	4798      	blx	r3
     83e:	e7da      	b.n	7f6 <main+0x7e>
					old_millis = millis;
     840:	4cb2      	ldr	r4, [pc, #712]	; (b0c <main+0x394>)
     842:	6826      	ldr	r6, [r4, #0]
					adc_reset();
     844:	4bae      	ldr	r3, [pc, #696]	; (b00 <main+0x388>)
     846:	4798      	blx	r3
					mode = 1; // go to mode 1
     848:	2501      	movs	r5, #1
     84a:	7125      	strb	r5, [r4, #4]
					led_writeAll(0, 0, 0); // turn off LEDs
     84c:	2200      	movs	r2, #0
     84e:	2100      	movs	r1, #0
     850:	2000      	movs	r0, #0
     852:	4bac      	ldr	r3, [pc, #688]	; (b04 <main+0x38c>)
     854:	4798      	blx	r3
					spi_write();
     856:	4bac      	ldr	r3, [pc, #688]	; (b08 <main+0x390>)
     858:	4798      	blx	r3
					counter_flagSet(0); // make sure flag is cleared before next spi write
     85a:	2000      	movs	r0, #0
     85c:	4baf      	ldr	r3, [pc, #700]	; (b1c <main+0x3a4>)
     85e:	4798      	blx	r3
					index = 0;
     860:	2300      	movs	r3, #0
     862:	80e3      	strh	r3, [r4, #6]
					state = 0;
     864:	7223      	strb	r3, [r4, #8]
					led = 1;
     866:	4bae      	ldr	r3, [pc, #696]	; (b20 <main+0x3a8>)
     868:	701d      	strb	r5, [r3, #0]
					next_led = 2;
     86a:	2202      	movs	r2, #2
     86c:	705a      	strb	r2, [r3, #1]
					led_state = 0;
     86e:	2300      	movs	r3, #0
     870:	7263      	strb	r3, [r4, #9]
     872:	e7cf      	b.n	814 <main+0x9c>
				counter_flagSet(0); // clear flag
     874:	2000      	movs	r0, #0
     876:	4ba9      	ldr	r3, [pc, #676]	; (b1c <main+0x3a4>)
     878:	4798      	blx	r3
				step = calculate_adc();
     87a:	4baa      	ldr	r3, [pc, #680]	; (b24 <main+0x3ac>)
     87c:	4798      	blx	r3
     87e:	0004      	movs	r4, r0
				switch (color)
     880:	4ba2      	ldr	r3, [pc, #648]	; (b0c <main+0x394>)
     882:	7a9a      	ldrb	r2, [r3, #10]
     884:	2a05      	cmp	r2, #5
     886:	d85c      	bhi.n	942 <main+0x1ca>
     888:	0093      	lsls	r3, r2, #2
     88a:	4aa7      	ldr	r2, [pc, #668]	; (b28 <main+0x3b0>)
     88c:	58d3      	ldr	r3, [r2, r3]
     88e:	469f      	mov	pc, r3
					green = fade_up[index];
     890:	4b9e      	ldr	r3, [pc, #632]	; (b0c <main+0x394>)
     892:	88db      	ldrh	r3, [r3, #6]
     894:	005b      	lsls	r3, r3, #1
     896:	4aa5      	ldr	r2, [pc, #660]	; (b2c <main+0x3b4>)
     898:	5a9b      	ldrh	r3, [r3, r2]
     89a:	9309      	str	r3, [sp, #36]	; 0x24
					blue = 0;
     89c:	2300      	movs	r3, #0
     89e:	9307      	str	r3, [sp, #28]
					red = 4095;
     8a0:	4ba3      	ldr	r3, [pc, #652]	; (b30 <main+0x3b8>)
     8a2:	9308      	str	r3, [sp, #32]
				led_writeAll(red, green, blue);
     8a4:	9a07      	ldr	r2, [sp, #28]
     8a6:	9909      	ldr	r1, [sp, #36]	; 0x24
     8a8:	9808      	ldr	r0, [sp, #32]
     8aa:	4b96      	ldr	r3, [pc, #600]	; (b04 <main+0x38c>)
     8ac:	4798      	blx	r3
				spi_write(); // send first spi write
     8ae:	4b96      	ldr	r3, [pc, #600]	; (b08 <main+0x390>)
     8b0:	4798      	blx	r3
				index += step; // step thru table
     8b2:	4b96      	ldr	r3, [pc, #600]	; (b0c <main+0x394>)
     8b4:	88d8      	ldrh	r0, [r3, #6]
     8b6:	1900      	adds	r0, r0, r4
     8b8:	b280      	uxth	r0, r0
				if (index >= 360) // if table has been stepped through completely
     8ba:	2368      	movs	r3, #104	; 0x68
     8bc:	33ff      	adds	r3, #255	; 0xff
     8be:	4298      	cmp	r0, r3
     8c0:	d844      	bhi.n	94c <main+0x1d4>
				index += step; // step thru table
     8c2:	4b92      	ldr	r3, [pc, #584]	; (b0c <main+0x394>)
     8c4:	80d8      	strh	r0, [r3, #6]
     8c6:	e79a      	b.n	7fe <main+0x86>
					red = fade_down[index];
     8c8:	4b90      	ldr	r3, [pc, #576]	; (b0c <main+0x394>)
     8ca:	88da      	ldrh	r2, [r3, #6]
     8cc:	0052      	lsls	r2, r2, #1
     8ce:	4b99      	ldr	r3, [pc, #612]	; (b34 <main+0x3bc>)
     8d0:	189b      	adds	r3, r3, r2
     8d2:	2250      	movs	r2, #80	; 0x50
     8d4:	5a9b      	ldrh	r3, [r3, r2]
     8d6:	9308      	str	r3, [sp, #32]
					blue = 0;
     8d8:	2300      	movs	r3, #0
     8da:	9307      	str	r3, [sp, #28]
					green = 4095;
     8dc:	4b94      	ldr	r3, [pc, #592]	; (b30 <main+0x3b8>)
     8de:	9309      	str	r3, [sp, #36]	; 0x24
					break;
     8e0:	e7e0      	b.n	8a4 <main+0x12c>
					blue = fade_up[index];
     8e2:	4b8a      	ldr	r3, [pc, #552]	; (b0c <main+0x394>)
     8e4:	88db      	ldrh	r3, [r3, #6]
     8e6:	005b      	lsls	r3, r3, #1
     8e8:	4a90      	ldr	r2, [pc, #576]	; (b2c <main+0x3b4>)
     8ea:	5a9b      	ldrh	r3, [r3, r2]
     8ec:	9307      	str	r3, [sp, #28]
					green = 4095;
     8ee:	4b90      	ldr	r3, [pc, #576]	; (b30 <main+0x3b8>)
     8f0:	9309      	str	r3, [sp, #36]	; 0x24
					red = 0;
     8f2:	2300      	movs	r3, #0
     8f4:	9308      	str	r3, [sp, #32]
					break;
     8f6:	e7d5      	b.n	8a4 <main+0x12c>
					green = fade_down[index];
     8f8:	4b84      	ldr	r3, [pc, #528]	; (b0c <main+0x394>)
     8fa:	88da      	ldrh	r2, [r3, #6]
     8fc:	0052      	lsls	r2, r2, #1
     8fe:	4b8d      	ldr	r3, [pc, #564]	; (b34 <main+0x3bc>)
     900:	189b      	adds	r3, r3, r2
     902:	2250      	movs	r2, #80	; 0x50
     904:	5a9b      	ldrh	r3, [r3, r2]
     906:	9309      	str	r3, [sp, #36]	; 0x24
					blue = 4095;
     908:	4b89      	ldr	r3, [pc, #548]	; (b30 <main+0x3b8>)
     90a:	9307      	str	r3, [sp, #28]
					red = 0; // fade to blue
     90c:	2300      	movs	r3, #0
     90e:	9308      	str	r3, [sp, #32]
					break;
     910:	e7c8      	b.n	8a4 <main+0x12c>
					red = fade_up[index];
     912:	4b7e      	ldr	r3, [pc, #504]	; (b0c <main+0x394>)
     914:	88db      	ldrh	r3, [r3, #6]
     916:	005b      	lsls	r3, r3, #1
     918:	4a84      	ldr	r2, [pc, #528]	; (b2c <main+0x3b4>)
     91a:	5a9b      	ldrh	r3, [r3, r2]
     91c:	9308      	str	r3, [sp, #32]
					blue = 4095;
     91e:	4b84      	ldr	r3, [pc, #528]	; (b30 <main+0x3b8>)
     920:	9307      	str	r3, [sp, #28]
					green = 0;
     922:	2300      	movs	r3, #0
     924:	9309      	str	r3, [sp, #36]	; 0x24
					break;
     926:	e7bd      	b.n	8a4 <main+0x12c>
					blue = fade_down[index];
     928:	4b78      	ldr	r3, [pc, #480]	; (b0c <main+0x394>)
     92a:	88da      	ldrh	r2, [r3, #6]
     92c:	0052      	lsls	r2, r2, #1
     92e:	4b81      	ldr	r3, [pc, #516]	; (b34 <main+0x3bc>)
     930:	189b      	adds	r3, r3, r2
     932:	2250      	movs	r2, #80	; 0x50
     934:	5a9b      	ldrh	r3, [r3, r2]
     936:	9307      	str	r3, [sp, #28]
					green = 0;
     938:	2300      	movs	r3, #0
     93a:	9309      	str	r3, [sp, #36]	; 0x24
					red = 4095;
     93c:	4b7c      	ldr	r3, [pc, #496]	; (b30 <main+0x3b8>)
     93e:	9308      	str	r3, [sp, #32]
					break;
     940:	e7b0      	b.n	8a4 <main+0x12c>
					blue = 0;
     942:	2300      	movs	r3, #0
     944:	9307      	str	r3, [sp, #28]
					green = 0;
     946:	9309      	str	r3, [sp, #36]	; 0x24
					red = 0;
     948:	9308      	str	r3, [sp, #32]
     94a:	e7ab      	b.n	8a4 <main+0x12c>
					index = 0; // reset index
     94c:	4b6f      	ldr	r3, [pc, #444]	; (b0c <main+0x394>)
     94e:	2200      	movs	r2, #0
     950:	80da      	strh	r2, [r3, #6]
					color += 1; // increment color state
     952:	7a9b      	ldrb	r3, [r3, #10]
     954:	3301      	adds	r3, #1
     956:	b2db      	uxtb	r3, r3
					if (color > 5) // after magenta, go to red
     958:	2b05      	cmp	r3, #5
     95a:	d802      	bhi.n	962 <main+0x1ea>
					color += 1; // increment color state
     95c:	4a6b      	ldr	r2, [pc, #428]	; (b0c <main+0x394>)
     95e:	7293      	strb	r3, [r2, #10]
     960:	e74d      	b.n	7fe <main+0x86>
						color = RED;
     962:	2200      	movs	r2, #0
     964:	4b69      	ldr	r3, [pc, #420]	; (b0c <main+0x394>)
     966:	729a      	strb	r2, [r3, #10]
     968:	e749      	b.n	7fe <main+0x86>
				if (buttons_get(0)) // if button 0 pressed
     96a:	2000      	movs	r0, #0
     96c:	4b69      	ldr	r3, [pc, #420]	; (b14 <main+0x39c>)
     96e:	4798      	blx	r3
     970:	2800      	cmp	r0, #0
     972:	d115      	bne.n	9a0 <main+0x228>
				if (buttons_get(2))
     974:	2002      	movs	r0, #2
     976:	4b67      	ldr	r3, [pc, #412]	; (b14 <main+0x39c>)
     978:	4798      	blx	r3
     97a:	2800      	cmp	r0, #0
     97c:	d04d      	beq.n	a1a <main+0x2a2>
					old_millis = millis;
     97e:	4c63      	ldr	r4, [pc, #396]	; (b0c <main+0x394>)
     980:	6826      	ldr	r6, [r4, #0]
					adc_interruptSet();
     982:	4b65      	ldr	r3, [pc, #404]	; (b18 <main+0x3a0>)
     984:	4798      	blx	r3
					mode = 2;
     986:	2302      	movs	r3, #2
     988:	7123      	strb	r3, [r4, #4]
					led_writeAll(0, 0, 0);
     98a:	2200      	movs	r2, #0
     98c:	2100      	movs	r1, #0
     98e:	2000      	movs	r0, #0
     990:	4b5c      	ldr	r3, [pc, #368]	; (b04 <main+0x38c>)
     992:	4798      	blx	r3
					spi_write();
     994:	4b5c      	ldr	r3, [pc, #368]	; (b08 <main+0x390>)
     996:	4798      	blx	r3
					counter_flagSet(0);
     998:	2000      	movs	r0, #0
     99a:	4b60      	ldr	r3, [pc, #384]	; (b1c <main+0x3a4>)
     99c:	4798      	blx	r3
     99e:	e03c      	b.n	a1a <main+0x2a2>
					old_millis = millis;
     9a0:	4c5a      	ldr	r4, [pc, #360]	; (b0c <main+0x394>)
     9a2:	6826      	ldr	r6, [r4, #0]
					adc_reset();
     9a4:	4b56      	ldr	r3, [pc, #344]	; (b00 <main+0x388>)
     9a6:	4798      	blx	r3
					mode = 0; // go to mode 0
     9a8:	2700      	movs	r7, #0
     9aa:	7127      	strb	r7, [r4, #4]
					color = RED;
     9ac:	72a7      	strb	r7, [r4, #10]
					led_writeAll(0, 0, 0); // turn off LEDs
     9ae:	2200      	movs	r2, #0
     9b0:	2100      	movs	r1, #0
     9b2:	2000      	movs	r0, #0
     9b4:	4b53      	ldr	r3, [pc, #332]	; (b04 <main+0x38c>)
     9b6:	4798      	blx	r3
					spi_write();
     9b8:	4b53      	ldr	r3, [pc, #332]	; (b08 <main+0x390>)
     9ba:	4798      	blx	r3
					index = 0;
     9bc:	80e7      	strh	r7, [r4, #6]
     9be:	e7d9      	b.n	974 <main+0x1fc>
					blue = fade_up[index];
     9c0:	4b52      	ldr	r3, [pc, #328]	; (b0c <main+0x394>)
     9c2:	88db      	ldrh	r3, [r3, #6]
     9c4:	005b      	lsls	r3, r3, #1
     9c6:	4a59      	ldr	r2, [pc, #356]	; (b2c <main+0x3b4>)
     9c8:	5a9b      	ldrh	r3, [r3, r2]
     9ca:	9307      	str	r3, [sp, #28]
					next_blue = 0;
     9cc:	2300      	movs	r3, #0
     9ce:	930b      	str	r3, [sp, #44]	; 0x2c
					next_red = 0;
     9d0:	930a      	str	r3, [sp, #40]	; 0x28
					green = 0;
     9d2:	9309      	str	r3, [sp, #36]	; 0x24
					red = 0;
     9d4:	9308      	str	r3, [sp, #32]
				led_write(led, red, green, blue);
     9d6:	4c52      	ldr	r4, [pc, #328]	; (b20 <main+0x3a8>)
     9d8:	7820      	ldrb	r0, [r4, #0]
     9da:	9b07      	ldr	r3, [sp, #28]
     9dc:	9a09      	ldr	r2, [sp, #36]	; 0x24
     9de:	9908      	ldr	r1, [sp, #32]
     9e0:	4f55      	ldr	r7, [pc, #340]	; (b38 <main+0x3c0>)
     9e2:	47b8      	blx	r7
				led_write(next_led, next_red, next_green, next_blue);
     9e4:	7860      	ldrb	r0, [r4, #1]
     9e6:	9b0b      	ldr	r3, [sp, #44]	; 0x2c
     9e8:	2200      	movs	r2, #0
     9ea:	990a      	ldr	r1, [sp, #40]	; 0x28
     9ec:	47b8      	blx	r7
				spi_write(); // send spi write
     9ee:	4b46      	ldr	r3, [pc, #280]	; (b08 <main+0x390>)
     9f0:	4798      	blx	r3
				index += step; // step thru table
     9f2:	4b46      	ldr	r3, [pc, #280]	; (b0c <main+0x394>)
     9f4:	88d8      	ldrh	r0, [r3, #6]
     9f6:	4440      	add	r0, r8
     9f8:	b280      	uxth	r0, r0
				if (index >= 360) // if table has been stepped through completely
     9fa:	2368      	movs	r3, #104	; 0x68
     9fc:	33ff      	adds	r3, #255	; 0xff
     9fe:	4298      	cmp	r0, r3
     a00:	d900      	bls.n	a04 <main+0x28c>
     a02:	e0c6      	b.n	b92 <main+0x41a>
				index += step; // step thru table
     a04:	4b41      	ldr	r3, [pc, #260]	; (b0c <main+0x394>)
     a06:	80d8      	strh	r0, [r3, #6]
		while (mode == 1)
     a08:	4653      	mov	r3, sl
     a0a:	791b      	ldrb	r3, [r3, #4]
     a0c:	2b01      	cmp	r3, #1
     a0e:	d000      	beq.n	a12 <main+0x29a>
     a10:	e0ff      	b.n	c12 <main+0x49a>
			if ((millis - old_millis) > 20)
     a12:	682b      	ldr	r3, [r5, #0]
     a14:	1b9b      	subs	r3, r3, r6
     a16:	2b14      	cmp	r3, #20
     a18:	d8a7      	bhi.n	96a <main+0x1f2>
			if (counter_flagGet()) // if flag set
     a1a:	4b3d      	ldr	r3, [pc, #244]	; (b10 <main+0x398>)
     a1c:	4798      	blx	r3
     a1e:	2800      	cmp	r0, #0
     a20:	d0f2      	beq.n	a08 <main+0x290>
				counter_flagSet(0); // clear flag
     a22:	2000      	movs	r0, #0
     a24:	4b3d      	ldr	r3, [pc, #244]	; (b1c <main+0x3a4>)
     a26:	4798      	blx	r3
				step = calculate_adc();
     a28:	4b3e      	ldr	r3, [pc, #248]	; (b24 <main+0x3ac>)
     a2a:	4798      	blx	r3
     a2c:	4680      	mov	r8, r0
				switch (state)
     a2e:	4b37      	ldr	r3, [pc, #220]	; (b0c <main+0x394>)
     a30:	7a1a      	ldrb	r2, [r3, #8]
     a32:	2a07      	cmp	r2, #7
     a34:	d8cf      	bhi.n	9d6 <main+0x25e>
     a36:	0093      	lsls	r3, r2, #2
     a38:	4a40      	ldr	r2, [pc, #256]	; (b3c <main+0x3c4>)
     a3a:	58d3      	ldr	r3, [r2, r3]
     a3c:	469f      	mov	pc, r3
					red = fade_up[index];
     a3e:	4b33      	ldr	r3, [pc, #204]	; (b0c <main+0x394>)
     a40:	88db      	ldrh	r3, [r3, #6]
     a42:	005b      	lsls	r3, r3, #1
     a44:	4a39      	ldr	r2, [pc, #228]	; (b2c <main+0x3b4>)
     a46:	5a9b      	ldrh	r3, [r3, r2]
     a48:	9308      	str	r3, [sp, #32]
					next_blue = 0;
     a4a:	2300      	movs	r3, #0
     a4c:	930b      	str	r3, [sp, #44]	; 0x2c
					next_red = 0;
     a4e:	930a      	str	r3, [sp, #40]	; 0x28
					blue = 4095;
     a50:	4b37      	ldr	r3, [pc, #220]	; (b30 <main+0x3b8>)
     a52:	9307      	str	r3, [sp, #28]
					green = 0;
     a54:	2300      	movs	r3, #0
     a56:	9309      	str	r3, [sp, #36]	; 0x24
					break;
     a58:	e7bd      	b.n	9d6 <main+0x25e>
					blue = fade_down[index];
     a5a:	4b2c      	ldr	r3, [pc, #176]	; (b0c <main+0x394>)
     a5c:	88da      	ldrh	r2, [r3, #6]
     a5e:	0052      	lsls	r2, r2, #1
     a60:	4b34      	ldr	r3, [pc, #208]	; (b34 <main+0x3bc>)
     a62:	189b      	adds	r3, r3, r2
     a64:	2250      	movs	r2, #80	; 0x50
     a66:	5a9b      	ldrh	r3, [r3, r2]
     a68:	9307      	str	r3, [sp, #28]
					next_blue = 0;
     a6a:	2300      	movs	r3, #0
     a6c:	930b      	str	r3, [sp, #44]	; 0x2c
					next_red = 0;
     a6e:	930a      	str	r3, [sp, #40]	; 0x28
					green = 0;
     a70:	9309      	str	r3, [sp, #36]	; 0x24
					red = 4095;
     a72:	4b2f      	ldr	r3, [pc, #188]	; (b30 <main+0x3b8>)
     a74:	9308      	str	r3, [sp, #32]
					break;
     a76:	e7ae      	b.n	9d6 <main+0x25e>
					green = fade_up[index];
     a78:	4b24      	ldr	r3, [pc, #144]	; (b0c <main+0x394>)
     a7a:	88db      	ldrh	r3, [r3, #6]
     a7c:	005b      	lsls	r3, r3, #1
     a7e:	4a2b      	ldr	r2, [pc, #172]	; (b2c <main+0x3b4>)
     a80:	5a9b      	ldrh	r3, [r3, r2]
     a82:	9309      	str	r3, [sp, #36]	; 0x24
					next_blue = 0;
     a84:	2300      	movs	r3, #0
     a86:	930b      	str	r3, [sp, #44]	; 0x2c
					next_red = 0;
     a88:	930a      	str	r3, [sp, #40]	; 0x28
					blue = 0;
     a8a:	9307      	str	r3, [sp, #28]
					red = 4095;
     a8c:	4b28      	ldr	r3, [pc, #160]	; (b30 <main+0x3b8>)
     a8e:	9308      	str	r3, [sp, #32]
					break;
     a90:	e7a1      	b.n	9d6 <main+0x25e>
					red = fade_down[index];
     a92:	4b1e      	ldr	r3, [pc, #120]	; (b0c <main+0x394>)
     a94:	88da      	ldrh	r2, [r3, #6]
     a96:	0052      	lsls	r2, r2, #1
     a98:	4b26      	ldr	r3, [pc, #152]	; (b34 <main+0x3bc>)
     a9a:	189b      	adds	r3, r3, r2
     a9c:	2250      	movs	r2, #80	; 0x50
     a9e:	5a9b      	ldrh	r3, [r3, r2]
     aa0:	9308      	str	r3, [sp, #32]
					next_blue = 0;
     aa2:	2300      	movs	r3, #0
     aa4:	930b      	str	r3, [sp, #44]	; 0x2c
					next_red = 0;
     aa6:	930a      	str	r3, [sp, #40]	; 0x28
					blue = 0;
     aa8:	9307      	str	r3, [sp, #28]
					green = 4095;
     aaa:	4b21      	ldr	r3, [pc, #132]	; (b30 <main+0x3b8>)
     aac:	9309      	str	r3, [sp, #36]	; 0x24
					break;
     aae:	e792      	b.n	9d6 <main+0x25e>
					blue = fade_up[index];
     ab0:	4b16      	ldr	r3, [pc, #88]	; (b0c <main+0x394>)
     ab2:	88db      	ldrh	r3, [r3, #6]
     ab4:	005b      	lsls	r3, r3, #1
     ab6:	4a1d      	ldr	r2, [pc, #116]	; (b2c <main+0x3b4>)
     ab8:	5a9b      	ldrh	r3, [r3, r2]
     aba:	9307      	str	r3, [sp, #28]
					next_blue = 0;
     abc:	2300      	movs	r3, #0
     abe:	930b      	str	r3, [sp, #44]	; 0x2c
					next_red = 0;
     ac0:	930a      	str	r3, [sp, #40]	; 0x28
					green = 4095;
     ac2:	4b1b      	ldr	r3, [pc, #108]	; (b30 <main+0x3b8>)
     ac4:	9309      	str	r3, [sp, #36]	; 0x24
					red = 0;
     ac6:	2300      	movs	r3, #0
     ac8:	9308      	str	r3, [sp, #32]
					break;
     aca:	e784      	b.n	9d6 <main+0x25e>
     acc:	000005b1 	.word	0x000005b1
     ad0:	e000e010 	.word	0xe000e010
     ad4:	0000bb7f 	.word	0x0000bb7f
     ad8:	e000ed00 	.word	0xe000ed00
     adc:	00000671 	.word	0x00000671
     ae0:	000012e5 	.word	0x000012e5
     ae4:	000003c9 	.word	0x000003c9
     ae8:	000010bd 	.word	0x000010bd
     aec:	000005c1 	.word	0x000005c1
     af0:	00000311 	.word	0x00000311
     af4:	00000115 	.word	0x00000115
     af8:	00001371 	.word	0x00001371
     afc:	00000399 	.word	0x00000399
     b00:	00000259 	.word	0x00000259
     b04:	000006e5 	.word	0x000006e5
     b08:	000011f9 	.word	0x000011f9
     b0c:	20000490 	.word	0x20000490
     b10:	00000465 	.word	0x00000465
     b14:	00000345 	.word	0x00000345
     b18:	0000027d 	.word	0x0000027d
     b1c:	00000471 	.word	0x00000471
     b20:	20000004 	.word	0x20000004
     b24:	0000071d 	.word	0x0000071d
     b28:	00001650 	.word	0x00001650
     b2c:	000016a0 	.word	0x000016a0
     b30:	00000fff 	.word	0x00000fff
     b34:	00001920 	.word	0x00001920
     b38:	0000068d 	.word	0x0000068d
     b3c:	00001668 	.word	0x00001668
					green = fade_down[index];
     b40:	4bd6      	ldr	r3, [pc, #856]	; (e9c <main+0x724>)
     b42:	88db      	ldrh	r3, [r3, #6]
     b44:	005b      	lsls	r3, r3, #1
     b46:	4ad6      	ldr	r2, [pc, #856]	; (ea0 <main+0x728>)
     b48:	18d2      	adds	r2, r2, r3
     b4a:	2150      	movs	r1, #80	; 0x50
     b4c:	5a52      	ldrh	r2, [r2, r1]
     b4e:	9209      	str	r2, [sp, #36]	; 0x24
					next_blue = fade_up[index];
     b50:	4ad4      	ldr	r2, [pc, #848]	; (ea4 <main+0x72c>)
     b52:	5a9b      	ldrh	r3, [r3, r2]
     b54:	930b      	str	r3, [sp, #44]	; 0x2c
					next_red = 0;
     b56:	2300      	movs	r3, #0
     b58:	930a      	str	r3, [sp, #40]	; 0x28
					blue = 4095;
     b5a:	4bd3      	ldr	r3, [pc, #844]	; (ea8 <main+0x730>)
     b5c:	9307      	str	r3, [sp, #28]
					red = 0;
     b5e:	2300      	movs	r3, #0
     b60:	9308      	str	r3, [sp, #32]
					break;
     b62:	e738      	b.n	9d6 <main+0x25e>
					blue = fade_down[index];
     b64:	4bcd      	ldr	r3, [pc, #820]	; (e9c <main+0x724>)
     b66:	88db      	ldrh	r3, [r3, #6]
     b68:	0059      	lsls	r1, r3, #1
     b6a:	4acd      	ldr	r2, [pc, #820]	; (ea0 <main+0x728>)
     b6c:	1852      	adds	r2, r2, r1
     b6e:	2150      	movs	r1, #80	; 0x50
     b70:	5a52      	ldrh	r2, [r2, r1]
     b72:	9207      	str	r2, [sp, #28]
					if (blue == 1) // normalize blue at high step size
     b74:	2a01      	cmp	r2, #1
     b76:	d009      	beq.n	b8c <main+0x414>
					next_red = fade_up[index];
     b78:	005b      	lsls	r3, r3, #1
     b7a:	4aca      	ldr	r2, [pc, #808]	; (ea4 <main+0x72c>)
     b7c:	5a9b      	ldrh	r3, [r3, r2]
     b7e:	930a      	str	r3, [sp, #40]	; 0x28
					next_blue = 4095;
     b80:	4bc9      	ldr	r3, [pc, #804]	; (ea8 <main+0x730>)
     b82:	930b      	str	r3, [sp, #44]	; 0x2c
					green = 0;
     b84:	2300      	movs	r3, #0
     b86:	9309      	str	r3, [sp, #36]	; 0x24
					red = 0;
     b88:	9308      	str	r3, [sp, #32]
					break;
     b8a:	e724      	b.n	9d6 <main+0x25e>
						blue = 0;
     b8c:	2200      	movs	r2, #0
     b8e:	9207      	str	r2, [sp, #28]
     b90:	e7f2      	b.n	b78 <main+0x400>
					index = 0; // reset index
     b92:	4bc2      	ldr	r3, [pc, #776]	; (e9c <main+0x724>)
     b94:	2200      	movs	r2, #0
     b96:	80da      	strh	r2, [r3, #6]
					state += 1; // increment color state
     b98:	7a1b      	ldrb	r3, [r3, #8]
     b9a:	3301      	adds	r3, #1
     b9c:	b2db      	uxtb	r3, r3
					if (state > 7) // at end of state machine
     b9e:	2b07      	cmp	r3, #7
     ba0:	d802      	bhi.n	ba8 <main+0x430>
					state += 1; // increment color state
     ba2:	4abe      	ldr	r2, [pc, #760]	; (e9c <main+0x724>)
     ba4:	7213      	strb	r3, [r2, #8]
     ba6:	e72f      	b.n	a08 <main+0x290>
						state = 2; // go to state 2 (first 2 states covered in case 6 and 7 for next led)
     ba8:	4bbc      	ldr	r3, [pc, #752]	; (e9c <main+0x724>)
     baa:	2202      	movs	r2, #2
     bac:	721a      	strb	r2, [r3, #8]
						switch (led_state) // to get LEDs in figure-eight pattern
     bae:	7a58      	ldrb	r0, [r3, #9]
     bb0:	2805      	cmp	r0, #5
     bb2:	d808      	bhi.n	bc6 <main+0x44e>
     bb4:	0083      	lsls	r3, r0, #2
     bb6:	4abd      	ldr	r2, [pc, #756]	; (eac <main+0x734>)
     bb8:	58d3      	ldr	r3, [r2, r3]
     bba:	469f      	mov	pc, r3
							led = 2;
     bbc:	4bbc      	ldr	r3, [pc, #752]	; (eb0 <main+0x738>)
     bbe:	2202      	movs	r2, #2
     bc0:	701a      	strb	r2, [r3, #0]
							next_led = 5;
     bc2:	3203      	adds	r2, #3
     bc4:	705a      	strb	r2, [r3, #1]
						led_state++;
     bc6:	3001      	adds	r0, #1
						led_state %= 6;
     bc8:	b2c0      	uxtb	r0, r0
     bca:	2106      	movs	r1, #6
     bcc:	4bb9      	ldr	r3, [pc, #740]	; (eb4 <main+0x73c>)
     bce:	4798      	blx	r3
     bd0:	4bb2      	ldr	r3, [pc, #712]	; (e9c <main+0x724>)
     bd2:	7259      	strb	r1, [r3, #9]
     bd4:	e718      	b.n	a08 <main+0x290>
							led = 5;
     bd6:	4bb6      	ldr	r3, [pc, #728]	; (eb0 <main+0x738>)
     bd8:	2205      	movs	r2, #5
     bda:	701a      	strb	r2, [r3, #0]
							next_led = 4;
     bdc:	3a01      	subs	r2, #1
     bde:	705a      	strb	r2, [r3, #1]
							break;
     be0:	e7f1      	b.n	bc6 <main+0x44e>
							led = 4;
     be2:	4bb3      	ldr	r3, [pc, #716]	; (eb0 <main+0x738>)
     be4:	2204      	movs	r2, #4
     be6:	701a      	strb	r2, [r3, #0]
							next_led = 3;
     be8:	3a01      	subs	r2, #1
     bea:	705a      	strb	r2, [r3, #1]
							break;
     bec:	e7eb      	b.n	bc6 <main+0x44e>
							led = 3;
     bee:	4bb0      	ldr	r3, [pc, #704]	; (eb0 <main+0x738>)
     bf0:	2203      	movs	r2, #3
     bf2:	701a      	strb	r2, [r3, #0]
							next_led = 5;
     bf4:	3202      	adds	r2, #2
     bf6:	705a      	strb	r2, [r3, #1]
							break;
     bf8:	e7e5      	b.n	bc6 <main+0x44e>
							led = 5;
     bfa:	4bad      	ldr	r3, [pc, #692]	; (eb0 <main+0x738>)
     bfc:	2205      	movs	r2, #5
     bfe:	701a      	strb	r2, [r3, #0]
							next_led = 1;
     c00:	3a04      	subs	r2, #4
     c02:	705a      	strb	r2, [r3, #1]
							break;
     c04:	e7df      	b.n	bc6 <main+0x44e>
							led = 1;
     c06:	4baa      	ldr	r3, [pc, #680]	; (eb0 <main+0x738>)
     c08:	2201      	movs	r2, #1
     c0a:	701a      	strb	r2, [r3, #0]
							next_led = 2;
     c0c:	3201      	adds	r2, #1
     c0e:	705a      	strb	r2, [r3, #1]
							break;
     c10:	e7d9      	b.n	bc6 <main+0x44e>
		while (mode == 2)
     c12:	4ba2      	ldr	r3, [pc, #648]	; (e9c <main+0x724>)
     c14:	4698      	mov	r8, r3
     c16:	e1af      	b.n	f78 <main+0x800>
				if (buttons_get(0)) // if button 0 pressed
     c18:	2000      	movs	r0, #0
     c1a:	4ba7      	ldr	r3, [pc, #668]	; (eb8 <main+0x740>)
     c1c:	4798      	blx	r3
     c1e:	2800      	cmp	r0, #0
     c20:	d11f      	bne.n	c62 <main+0x4ea>
				if (buttons_get(1)) // if button 1 pressed
     c22:	2001      	movs	r0, #1
     c24:	4ba4      	ldr	r3, [pc, #656]	; (eb8 <main+0x740>)
     c26:	4798      	blx	r3
     c28:	2800      	cmp	r0, #0
     c2a:	d100      	bne.n	c2e <main+0x4b6>
     c2c:	e1af      	b.n	f8e <main+0x816>
					old_millis = millis;
     c2e:	4c9b      	ldr	r4, [pc, #620]	; (e9c <main+0x724>)
     c30:	6826      	ldr	r6, [r4, #0]
					adc_reset();
     c32:	4ba2      	ldr	r3, [pc, #648]	; (ebc <main+0x744>)
     c34:	4798      	blx	r3
					mode = 1; // go to mode 1
     c36:	2501      	movs	r5, #1
     c38:	7125      	strb	r5, [r4, #4]
					led_writeAll(0, 0, 0); // turn off LEDs
     c3a:	2200      	movs	r2, #0
     c3c:	2100      	movs	r1, #0
     c3e:	2000      	movs	r0, #0
     c40:	4b9f      	ldr	r3, [pc, #636]	; (ec0 <main+0x748>)
     c42:	4798      	blx	r3
					spi_write();
     c44:	4b9f      	ldr	r3, [pc, #636]	; (ec4 <main+0x74c>)
     c46:	4798      	blx	r3
					counter_flagSet(0); // make sure flag is cleared before next spi write
     c48:	2000      	movs	r0, #0
     c4a:	4b9f      	ldr	r3, [pc, #636]	; (ec8 <main+0x750>)
     c4c:	4798      	blx	r3
					index = 0;
     c4e:	2300      	movs	r3, #0
     c50:	80e3      	strh	r3, [r4, #6]
					state = 0;
     c52:	7223      	strb	r3, [r4, #8]
					led = 1;
     c54:	4b96      	ldr	r3, [pc, #600]	; (eb0 <main+0x738>)
     c56:	701d      	strb	r5, [r3, #0]
					next_led = 2;
     c58:	2202      	movs	r2, #2
     c5a:	705a      	strb	r2, [r3, #1]
					led_state = 0;
     c5c:	2300      	movs	r3, #0
     c5e:	7263      	strb	r3, [r4, #9]
     c60:	e195      	b.n	f8e <main+0x816>
					old_millis = millis;
     c62:	4c8e      	ldr	r4, [pc, #568]	; (e9c <main+0x724>)
     c64:	6826      	ldr	r6, [r4, #0]
					adc_reset();
     c66:	4b95      	ldr	r3, [pc, #596]	; (ebc <main+0x744>)
     c68:	4798      	blx	r3
					mode = 0; // go to mode 0
     c6a:	2500      	movs	r5, #0
     c6c:	7125      	strb	r5, [r4, #4]
					color = RED;
     c6e:	72a5      	strb	r5, [r4, #10]
					led_writeAll(0, 0, 0); // turn off LEDs
     c70:	2200      	movs	r2, #0
     c72:	2100      	movs	r1, #0
     c74:	2000      	movs	r0, #0
     c76:	4b92      	ldr	r3, [pc, #584]	; (ec0 <main+0x748>)
     c78:	4798      	blx	r3
					spi_write();
     c7a:	4b92      	ldr	r3, [pc, #584]	; (ec4 <main+0x74c>)
     c7c:	4798      	blx	r3
					index = 0;
     c7e:	80e5      	strh	r5, [r4, #6]
     c80:	e7cf      	b.n	c22 <main+0x4aa>
				else if (abs(adc_get_X()) < 820)
     c82:	4b92      	ldr	r3, [pc, #584]	; (ecc <main+0x754>)
     c84:	4798      	blx	r3
     c86:	17c3      	asrs	r3, r0, #31
     c88:	18c0      	adds	r0, r0, r3
     c8a:	4058      	eors	r0, r3
     c8c:	4b90      	ldr	r3, [pc, #576]	; (ed0 <main+0x758>)
     c8e:	4298      	cmp	r0, r3
     c90:	dc1a      	bgt.n	cc8 <main+0x550>
					x_red = xy_fade_up[abs(adc_get_X()) - 410]; // fade red up
     c92:	4c8e      	ldr	r4, [pc, #568]	; (ecc <main+0x754>)
     c94:	47a0      	blx	r4
     c96:	17c3      	asrs	r3, r0, #31
     c98:	18c0      	adds	r0, r0, r3
     c9a:	4058      	eors	r0, r3
     c9c:	389b      	subs	r0, #155	; 0x9b
     c9e:	38ff      	subs	r0, #255	; 0xff
     ca0:	0040      	lsls	r0, r0, #1
     ca2:	4b8c      	ldr	r3, [pc, #560]	; (ed4 <main+0x75c>)
     ca4:	1818      	adds	r0, r3, r0
     ca6:	8c03      	ldrh	r3, [r0, #32]
     ca8:	9305      	str	r3, [sp, #20]
					x_blue = xy_fade_down[abs(adc_get_X()) - 410]; // fade blue down
     caa:	47a0      	blx	r4
     cac:	17c3      	asrs	r3, r0, #31
     cae:	18c0      	adds	r0, r0, r3
     cb0:	4058      	eors	r0, r3
     cb2:	389b      	subs	r0, #155	; 0x9b
     cb4:	38ff      	subs	r0, #255	; 0xff
     cb6:	0040      	lsls	r0, r0, #1
     cb8:	4b87      	ldr	r3, [pc, #540]	; (ed8 <main+0x760>)
     cba:	1818      	adds	r0, r3, r0
     cbc:	2354      	movs	r3, #84	; 0x54
     cbe:	5ac3      	ldrh	r3, [r0, r3]
     cc0:	469b      	mov	fp, r3
					x_green = 0;
     cc2:	2300      	movs	r3, #0
     cc4:	9306      	str	r3, [sp, #24]
     cc6:	e185      	b.n	fd4 <main+0x85c>
				else if (abs(adc_get_X()) < 1230)
     cc8:	4b80      	ldr	r3, [pc, #512]	; (ecc <main+0x754>)
     cca:	4798      	blx	r3
     ccc:	17c3      	asrs	r3, r0, #31
     cce:	18c0      	adds	r0, r0, r3
     cd0:	4058      	eors	r0, r3
     cd2:	4b82      	ldr	r3, [pc, #520]	; (edc <main+0x764>)
     cd4:	4298      	cmp	r0, r3
     cd6:	dc1c      	bgt.n	d12 <main+0x59a>
					x_green = xy_fade_up[abs(adc_get_X()) - 820]; // fade green up
     cd8:	4c7c      	ldr	r4, [pc, #496]	; (ecc <main+0x754>)
     cda:	47a0      	blx	r4
     cdc:	17c3      	asrs	r3, r0, #31
     cde:	18c0      	adds	r0, r0, r3
     ce0:	4058      	eors	r0, r3
     ce2:	4b7f      	ldr	r3, [pc, #508]	; (ee0 <main+0x768>)
     ce4:	469c      	mov	ip, r3
     ce6:	4460      	add	r0, ip
     ce8:	0040      	lsls	r0, r0, #1
     cea:	4b7a      	ldr	r3, [pc, #488]	; (ed4 <main+0x75c>)
     cec:	1818      	adds	r0, r3, r0
     cee:	8c03      	ldrh	r3, [r0, #32]
     cf0:	9306      	str	r3, [sp, #24]
					x_red = xy_fade_down[abs(adc_get_X()) - 820]; // fade red down
     cf2:	47a0      	blx	r4
     cf4:	17c3      	asrs	r3, r0, #31
     cf6:	18c0      	adds	r0, r0, r3
     cf8:	4058      	eors	r0, r3
     cfa:	4b79      	ldr	r3, [pc, #484]	; (ee0 <main+0x768>)
     cfc:	469c      	mov	ip, r3
     cfe:	4460      	add	r0, ip
     d00:	0040      	lsls	r0, r0, #1
     d02:	4b75      	ldr	r3, [pc, #468]	; (ed8 <main+0x760>)
     d04:	1818      	adds	r0, r3, r0
     d06:	2354      	movs	r3, #84	; 0x54
     d08:	5ac3      	ldrh	r3, [r0, r3]
     d0a:	9305      	str	r3, [sp, #20]
					x_blue = 0;
     d0c:	2300      	movs	r3, #0
     d0e:	469b      	mov	fp, r3
     d10:	e160      	b.n	fd4 <main+0x85c>
				else if (abs(adc_get_X()) < 1640)
     d12:	4b6e      	ldr	r3, [pc, #440]	; (ecc <main+0x754>)
     d14:	4798      	blx	r3
     d16:	17c3      	asrs	r3, r0, #31
     d18:	18c0      	adds	r0, r0, r3
     d1a:	4058      	eors	r0, r3
     d1c:	4b71      	ldr	r3, [pc, #452]	; (ee4 <main+0x76c>)
     d1e:	4298      	cmp	r0, r3
     d20:	dc1a      	bgt.n	d58 <main+0x5e0>
					x_green = xy_fade_up[abs(adc_get_X()) - 1230]; // fade green up
     d22:	4d6a      	ldr	r5, [pc, #424]	; (ecc <main+0x754>)
     d24:	47a8      	blx	r5
     d26:	4c6b      	ldr	r4, [pc, #428]	; (ed4 <main+0x75c>)
     d28:	17c2      	asrs	r2, r0, #31
     d2a:	1883      	adds	r3, r0, r2
     d2c:	4053      	eors	r3, r2
     d2e:	4a6e      	ldr	r2, [pc, #440]	; (ee8 <main+0x770>)
     d30:	4694      	mov	ip, r2
     d32:	4463      	add	r3, ip
     d34:	005b      	lsls	r3, r3, #1
     d36:	18e3      	adds	r3, r4, r3
     d38:	8c1b      	ldrh	r3, [r3, #32]
     d3a:	9306      	str	r3, [sp, #24]
					x_blue = xy_fade_up[abs(adc_get_X()) - 1230]; // fade blue up
     d3c:	47a8      	blx	r5
     d3e:	17c3      	asrs	r3, r0, #31
     d40:	18c0      	adds	r0, r0, r3
     d42:	4058      	eors	r0, r3
     d44:	4b68      	ldr	r3, [pc, #416]	; (ee8 <main+0x770>)
     d46:	469c      	mov	ip, r3
     d48:	4460      	add	r0, ip
     d4a:	0040      	lsls	r0, r0, #1
     d4c:	1824      	adds	r4, r4, r0
     d4e:	8c23      	ldrh	r3, [r4, #32]
     d50:	469b      	mov	fp, r3
					x_red = 0;
     d52:	2300      	movs	r3, #0
     d54:	9305      	str	r3, [sp, #20]
     d56:	e13d      	b.n	fd4 <main+0x85c>
					x_red = xy_fade_up[abs(adc_get_X()) - 1640]; // fade red up
     d58:	4b5c      	ldr	r3, [pc, #368]	; (ecc <main+0x754>)
     d5a:	4798      	blx	r3
     d5c:	17c3      	asrs	r3, r0, #31
     d5e:	18c0      	adds	r0, r0, r3
     d60:	4058      	eors	r0, r3
     d62:	4b62      	ldr	r3, [pc, #392]	; (eec <main+0x774>)
     d64:	469c      	mov	ip, r3
     d66:	4460      	add	r0, ip
     d68:	0040      	lsls	r0, r0, #1
     d6a:	4b5a      	ldr	r3, [pc, #360]	; (ed4 <main+0x75c>)
     d6c:	1818      	adds	r0, r3, r0
     d6e:	8c03      	ldrh	r3, [r0, #32]
     d70:	9305      	str	r3, [sp, #20]
					x_blue = 4095; // max blue
     d72:	4b4d      	ldr	r3, [pc, #308]	; (ea8 <main+0x730>)
     d74:	469b      	mov	fp, r3
					x_green = 4095; // max green
     d76:	9306      	str	r3, [sp, #24]
     d78:	e12c      	b.n	fd4 <main+0x85c>
				else if (abs(adc_get_Y()) < 820)
     d7a:	4b5d      	ldr	r3, [pc, #372]	; (ef0 <main+0x778>)
     d7c:	4798      	blx	r3
     d7e:	17c3      	asrs	r3, r0, #31
     d80:	18c0      	adds	r0, r0, r3
     d82:	4058      	eors	r0, r3
     d84:	4b52      	ldr	r3, [pc, #328]	; (ed0 <main+0x758>)
     d86:	4298      	cmp	r0, r3
     d88:	dc1a      	bgt.n	dc0 <main+0x648>
					y_red = xy_fade_up[abs(adc_get_Y()) - 410]; // fade red up
     d8a:	4c59      	ldr	r4, [pc, #356]	; (ef0 <main+0x778>)
     d8c:	47a0      	blx	r4
     d8e:	17c3      	asrs	r3, r0, #31
     d90:	18c0      	adds	r0, r0, r3
     d92:	4058      	eors	r0, r3
     d94:	389b      	subs	r0, #155	; 0x9b
     d96:	38ff      	subs	r0, #255	; 0xff
     d98:	0040      	lsls	r0, r0, #1
     d9a:	4b4e      	ldr	r3, [pc, #312]	; (ed4 <main+0x75c>)
     d9c:	1818      	adds	r0, r3, r0
     d9e:	8c03      	ldrh	r3, [r0, #32]
     da0:	9302      	str	r3, [sp, #8]
					y_blue = xy_fade_down[abs(adc_get_Y()) - 410]; // fade blue down
     da2:	47a0      	blx	r4
     da4:	17c3      	asrs	r3, r0, #31
     da6:	18c0      	adds	r0, r0, r3
     da8:	4058      	eors	r0, r3
     daa:	389b      	subs	r0, #155	; 0x9b
     dac:	38ff      	subs	r0, #255	; 0xff
     dae:	0040      	lsls	r0, r0, #1
     db0:	4b49      	ldr	r3, [pc, #292]	; (ed8 <main+0x760>)
     db2:	1818      	adds	r0, r3, r0
     db4:	2354      	movs	r3, #84	; 0x54
     db6:	5ac3      	ldrh	r3, [r0, r3]
     db8:	9304      	str	r3, [sp, #16]
					y_green = 0;
     dba:	2300      	movs	r3, #0
     dbc:	9303      	str	r3, [sp, #12]
     dbe:	e120      	b.n	1002 <main+0x88a>
				else if (abs(adc_get_Y()) < 1230)
     dc0:	4b4b      	ldr	r3, [pc, #300]	; (ef0 <main+0x778>)
     dc2:	4798      	blx	r3
     dc4:	17c3      	asrs	r3, r0, #31
     dc6:	18c0      	adds	r0, r0, r3
     dc8:	4058      	eors	r0, r3
     dca:	4b44      	ldr	r3, [pc, #272]	; (edc <main+0x764>)
     dcc:	4298      	cmp	r0, r3
     dce:	dc1c      	bgt.n	e0a <main+0x692>
					y_green = xy_fade_up[abs(adc_get_Y()) - 820]; // fade green up
     dd0:	4c47      	ldr	r4, [pc, #284]	; (ef0 <main+0x778>)
     dd2:	47a0      	blx	r4
     dd4:	17c3      	asrs	r3, r0, #31
     dd6:	18c0      	adds	r0, r0, r3
     dd8:	4058      	eors	r0, r3
     dda:	4b41      	ldr	r3, [pc, #260]	; (ee0 <main+0x768>)
     ddc:	469c      	mov	ip, r3
     dde:	4460      	add	r0, ip
     de0:	0040      	lsls	r0, r0, #1
     de2:	4b3c      	ldr	r3, [pc, #240]	; (ed4 <main+0x75c>)
     de4:	1818      	adds	r0, r3, r0
     de6:	8c03      	ldrh	r3, [r0, #32]
     de8:	9303      	str	r3, [sp, #12]
					y_red = xy_fade_down[abs(adc_get_Y()) - 820]; // fade red down
     dea:	47a0      	blx	r4
     dec:	17c3      	asrs	r3, r0, #31
     dee:	18c0      	adds	r0, r0, r3
     df0:	4058      	eors	r0, r3
     df2:	4b3b      	ldr	r3, [pc, #236]	; (ee0 <main+0x768>)
     df4:	469c      	mov	ip, r3
     df6:	4460      	add	r0, ip
     df8:	0040      	lsls	r0, r0, #1
     dfa:	4b37      	ldr	r3, [pc, #220]	; (ed8 <main+0x760>)
     dfc:	1818      	adds	r0, r3, r0
     dfe:	2354      	movs	r3, #84	; 0x54
     e00:	5ac3      	ldrh	r3, [r0, r3]
     e02:	9302      	str	r3, [sp, #8]
					y_blue = 0;
     e04:	2300      	movs	r3, #0
     e06:	9304      	str	r3, [sp, #16]
     e08:	e0fb      	b.n	1002 <main+0x88a>
				else if (abs(adc_get_Y()) < 1640)
     e0a:	4b39      	ldr	r3, [pc, #228]	; (ef0 <main+0x778>)
     e0c:	4798      	blx	r3
     e0e:	17c3      	asrs	r3, r0, #31
     e10:	18c0      	adds	r0, r0, r3
     e12:	4058      	eors	r0, r3
     e14:	4b33      	ldr	r3, [pc, #204]	; (ee4 <main+0x76c>)
     e16:	4298      	cmp	r0, r3
     e18:	dc1a      	bgt.n	e50 <main+0x6d8>
					y_green = xy_fade_up[abs(adc_get_Y()) - 1230]; // fade green up
     e1a:	4d35      	ldr	r5, [pc, #212]	; (ef0 <main+0x778>)
     e1c:	47a8      	blx	r5
     e1e:	4c2d      	ldr	r4, [pc, #180]	; (ed4 <main+0x75c>)
     e20:	17c2      	asrs	r2, r0, #31
     e22:	1883      	adds	r3, r0, r2
     e24:	4053      	eors	r3, r2
     e26:	4a30      	ldr	r2, [pc, #192]	; (ee8 <main+0x770>)
     e28:	4694      	mov	ip, r2
     e2a:	4463      	add	r3, ip
     e2c:	005b      	lsls	r3, r3, #1
     e2e:	18e3      	adds	r3, r4, r3
     e30:	8c1b      	ldrh	r3, [r3, #32]
     e32:	9303      	str	r3, [sp, #12]
					y_blue = xy_fade_up[abs(adc_get_Y()) - 1230]; // fade blue up
     e34:	47a8      	blx	r5
     e36:	17c3      	asrs	r3, r0, #31
     e38:	18c0      	adds	r0, r0, r3
     e3a:	4058      	eors	r0, r3
     e3c:	4b2a      	ldr	r3, [pc, #168]	; (ee8 <main+0x770>)
     e3e:	469c      	mov	ip, r3
     e40:	4460      	add	r0, ip
     e42:	0040      	lsls	r0, r0, #1
     e44:	1824      	adds	r4, r4, r0
     e46:	8c23      	ldrh	r3, [r4, #32]
     e48:	9304      	str	r3, [sp, #16]
					y_red = 0;
     e4a:	2300      	movs	r3, #0
     e4c:	9302      	str	r3, [sp, #8]
     e4e:	e0d8      	b.n	1002 <main+0x88a>
					y_red = xy_fade_up[abs(adc_get_Y()) - 1640]; // fade red up
     e50:	4b27      	ldr	r3, [pc, #156]	; (ef0 <main+0x778>)
     e52:	4798      	blx	r3
     e54:	17c3      	asrs	r3, r0, #31
     e56:	18c0      	adds	r0, r0, r3
     e58:	4058      	eors	r0, r3
     e5a:	4b24      	ldr	r3, [pc, #144]	; (eec <main+0x774>)
     e5c:	469c      	mov	ip, r3
     e5e:	4460      	add	r0, ip
     e60:	0040      	lsls	r0, r0, #1
     e62:	4b1c      	ldr	r3, [pc, #112]	; (ed4 <main+0x75c>)
     e64:	1818      	adds	r0, r3, r0
     e66:	8c03      	ldrh	r3, [r0, #32]
     e68:	9302      	str	r3, [sp, #8]
					y_blue = 4095; // max blue
     e6a:	4b0f      	ldr	r3, [pc, #60]	; (ea8 <main+0x730>)
     e6c:	9304      	str	r3, [sp, #16]
					y_green = 4095; // max green
     e6e:	9303      	str	r3, [sp, #12]
     e70:	e0c7      	b.n	1002 <main+0x88a>
				uint16_t high_val = (abs(adc_get_X()) > abs(adc_get_Y()))? abs(adc_get_X()) : abs(adc_get_Y()); // get higher value between x and y
     e72:	4b1f      	ldr	r3, [pc, #124]	; (ef0 <main+0x778>)
     e74:	4798      	blx	r3
     e76:	17c3      	asrs	r3, r0, #31
     e78:	18c0      	adds	r0, r0, r3
     e7a:	4058      	eors	r0, r3
     e7c:	b280      	uxth	r0, r0
     e7e:	e0d4      	b.n	102a <main+0x8b2>
				else if (high_val <= 820)
     e80:	23cd      	movs	r3, #205	; 0xcd
     e82:	009b      	lsls	r3, r3, #2
     e84:	4298      	cmp	r0, r3
     e86:	d835      	bhi.n	ef4 <main+0x77c>
					middle_green = xy_fade_up[820 - high_val]; // fade green up
     e88:	1a18      	subs	r0, r3, r0
     e8a:	0040      	lsls	r0, r0, #1
     e8c:	4b11      	ldr	r3, [pc, #68]	; (ed4 <main+0x75c>)
     e8e:	1818      	adds	r0, r3, r0
     e90:	8c03      	ldrh	r3, [r0, #32]
     e92:	9301      	str	r3, [sp, #4]
					middle_blue = xy_fade_up[820 - high_val]; // fade blue up
     e94:	001c      	movs	r4, r3
					middle_red = 0;
     e96:	2700      	movs	r7, #0
     e98:	e0d3      	b.n	1042 <main+0x8ca>
     e9a:	46c0      	nop			; (mov r8, r8)
     e9c:	20000490 	.word	0x20000490
     ea0:	00001920 	.word	0x00001920
     ea4:	000016a0 	.word	0x000016a0
     ea8:	00000fff 	.word	0x00000fff
     eac:	00001688 	.word	0x00001688
     eb0:	20000004 	.word	0x20000004
     eb4:	0000148d 	.word	0x0000148d
     eb8:	00000345 	.word	0x00000345
     ebc:	00000259 	.word	0x00000259
     ec0:	000006e5 	.word	0x000006e5
     ec4:	000011f9 	.word	0x000011f9
     ec8:	00000471 	.word	0x00000471
     ecc:	00000241 	.word	0x00000241
     ed0:	00000333 	.word	0x00000333
     ed4:	00001c20 	.word	0x00001c20
     ed8:	00001f20 	.word	0x00001f20
     edc:	000004cd 	.word	0x000004cd
     ee0:	fffffccc 	.word	0xfffffccc
     ee4:	00000667 	.word	0x00000667
     ee8:	fffffb32 	.word	0xfffffb32
     eec:	fffff998 	.word	0xfffff998
     ef0:	00000229 	.word	0x00000229
				else if (high_val <= 1230)
     ef4:	4b61      	ldr	r3, [pc, #388]	; (107c <main+0x904>)
     ef6:	4298      	cmp	r0, r3
     ef8:	d80b      	bhi.n	f12 <main+0x79a>
					middle_green = xy_fade_up[1230 - high_val]; // fade green up
     efa:	1a18      	subs	r0, r3, r0
     efc:	0040      	lsls	r0, r0, #1
     efe:	4b60      	ldr	r3, [pc, #384]	; (1080 <main+0x908>)
     f00:	181b      	adds	r3, r3, r0
     f02:	8c1b      	ldrh	r3, [r3, #32]
     f04:	9301      	str	r3, [sp, #4]
					middle_red = xy_fade_down[1230 - high_val]; // fade red down
     f06:	4b5f      	ldr	r3, [pc, #380]	; (1084 <main+0x90c>)
     f08:	1818      	adds	r0, r3, r0
     f0a:	2354      	movs	r3, #84	; 0x54
     f0c:	5ac7      	ldrh	r7, [r0, r3]
					middle_blue = 0;
     f0e:	2400      	movs	r4, #0
     f10:	e097      	b.n	1042 <main+0x8ca>
				else if (high_val <= 1640)
     f12:	23cd      	movs	r3, #205	; 0xcd
     f14:	00db      	lsls	r3, r3, #3
     f16:	4298      	cmp	r0, r3
     f18:	d80b      	bhi.n	f32 <main+0x7ba>
					middle_red = xy_fade_up[1640 - high_val];
     f1a:	1a18      	subs	r0, r3, r0
     f1c:	0040      	lsls	r0, r0, #1
     f1e:	4b58      	ldr	r3, [pc, #352]	; (1080 <main+0x908>)
     f20:	181b      	adds	r3, r3, r0
     f22:	8c1f      	ldrh	r7, [r3, #32]
					middle_blue = xy_fade_down[1640 - high_val];
     f24:	4b57      	ldr	r3, [pc, #348]	; (1084 <main+0x90c>)
     f26:	1818      	adds	r0, r3, r0
     f28:	2354      	movs	r3, #84	; 0x54
     f2a:	5ac4      	ldrh	r4, [r0, r3]
					middle_green = 0;
     f2c:	2300      	movs	r3, #0
     f2e:	9301      	str	r3, [sp, #4]
     f30:	e087      	b.n	1042 <main+0x8ca>
					middle_blue = xy_fade_up[2047 - high_val];
     f32:	4b55      	ldr	r3, [pc, #340]	; (1088 <main+0x910>)
     f34:	1a18      	subs	r0, r3, r0
     f36:	0040      	lsls	r0, r0, #1
     f38:	4b51      	ldr	r3, [pc, #324]	; (1080 <main+0x908>)
     f3a:	1818      	adds	r0, r3, r0
     f3c:	8c04      	ldrh	r4, [r0, #32]
					middle_green = 0;
     f3e:	2300      	movs	r3, #0
     f40:	9301      	str	r3, [sp, #4]
					middle_red = 0;
     f42:	2700      	movs	r7, #0
     f44:	e07d      	b.n	1042 <main+0x8ca>
					led_write(4, x_red, x_green, x_blue);
     f46:	465b      	mov	r3, fp
     f48:	9a06      	ldr	r2, [sp, #24]
     f4a:	9905      	ldr	r1, [sp, #20]
     f4c:	2004      	movs	r0, #4
     f4e:	4d4f      	ldr	r5, [pc, #316]	; (108c <main+0x914>)
     f50:	47a8      	blx	r5
				if (adc_get_Y() > 0)
     f52:	4b4f      	ldr	r3, [pc, #316]	; (1090 <main+0x918>)
     f54:	4798      	blx	r3
     f56:	2800      	cmp	r0, #0
     f58:	dc00      	bgt.n	f5c <main+0x7e4>
     f5a:	e083      	b.n	1064 <main+0x8ec>
					led_write(1, y_red, y_green, y_blue);
     f5c:	9b04      	ldr	r3, [sp, #16]
     f5e:	9a03      	ldr	r2, [sp, #12]
     f60:	9902      	ldr	r1, [sp, #8]
     f62:	2001      	movs	r0, #1
     f64:	4d49      	ldr	r5, [pc, #292]	; (108c <main+0x914>)
     f66:	47a8      	blx	r5
				led_write(5, middle_red, middle_green, middle_blue);
     f68:	0023      	movs	r3, r4
     f6a:	9a01      	ldr	r2, [sp, #4]
     f6c:	0039      	movs	r1, r7
     f6e:	2005      	movs	r0, #5
     f70:	4c46      	ldr	r4, [pc, #280]	; (108c <main+0x914>)
     f72:	47a0      	blx	r4
				spi_write();
     f74:	4b47      	ldr	r3, [pc, #284]	; (1094 <main+0x91c>)
     f76:	4798      	blx	r3
		while (mode == 2)
     f78:	4643      	mov	r3, r8
     f7a:	791b      	ldrb	r3, [r3, #4]
     f7c:	2b02      	cmp	r3, #2
     f7e:	d000      	beq.n	f82 <main+0x80a>
     f80:	e43d      	b.n	7fe <main+0x86>
			if ((millis - old_millis) > 20) // button debounce
     f82:	464b      	mov	r3, r9
     f84:	681b      	ldr	r3, [r3, #0]
     f86:	1b9b      	subs	r3, r3, r6
     f88:	2b14      	cmp	r3, #20
     f8a:	d900      	bls.n	f8e <main+0x816>
     f8c:	e644      	b.n	c18 <main+0x4a0>
			if (counter_flagGet())
     f8e:	4b42      	ldr	r3, [pc, #264]	; (1098 <main+0x920>)
     f90:	4798      	blx	r3
     f92:	2800      	cmp	r0, #0
     f94:	d0f0      	beq.n	f78 <main+0x800>
				counter_flagSet(0); // clear flag
     f96:	2000      	movs	r0, #0
     f98:	4b40      	ldr	r3, [pc, #256]	; (109c <main+0x924>)
     f9a:	4798      	blx	r3
				led_writeAll(0, 0, 0); // turn off all LEDs
     f9c:	2200      	movs	r2, #0
     f9e:	2100      	movs	r1, #0
     fa0:	2000      	movs	r0, #0
     fa2:	4b3f      	ldr	r3, [pc, #252]	; (10a0 <main+0x928>)
     fa4:	4798      	blx	r3
				if (abs(adc_get_X()) < 410)
     fa6:	4b3f      	ldr	r3, [pc, #252]	; (10a4 <main+0x92c>)
     fa8:	4798      	blx	r3
     faa:	17c3      	asrs	r3, r0, #31
     fac:	18c0      	adds	r0, r0, r3
     fae:	4058      	eors	r0, r3
     fb0:	239a      	movs	r3, #154	; 0x9a
     fb2:	33ff      	adds	r3, #255	; 0xff
     fb4:	4298      	cmp	r0, r3
     fb6:	dd00      	ble.n	fba <main+0x842>
     fb8:	e663      	b.n	c82 <main+0x50a>
					x_blue = xy_fade_up[abs(adc_get_X())]; // fade blue up
     fba:	4b3a      	ldr	r3, [pc, #232]	; (10a4 <main+0x92c>)
     fbc:	4798      	blx	r3
     fbe:	17c3      	asrs	r3, r0, #31
     fc0:	18c0      	adds	r0, r0, r3
     fc2:	4058      	eors	r0, r3
     fc4:	0040      	lsls	r0, r0, #1
     fc6:	4b2e      	ldr	r3, [pc, #184]	; (1080 <main+0x908>)
     fc8:	1818      	adds	r0, r3, r0
     fca:	8c03      	ldrh	r3, [r0, #32]
     fcc:	469b      	mov	fp, r3
					x_green = 0;
     fce:	2300      	movs	r3, #0
     fd0:	9306      	str	r3, [sp, #24]
					x_red = 0;
     fd2:	9305      	str	r3, [sp, #20]
				if (abs(adc_get_Y()) < 410)
     fd4:	4b2e      	ldr	r3, [pc, #184]	; (1090 <main+0x918>)
     fd6:	4798      	blx	r3
     fd8:	17c3      	asrs	r3, r0, #31
     fda:	18c0      	adds	r0, r0, r3
     fdc:	4058      	eors	r0, r3
     fde:	239a      	movs	r3, #154	; 0x9a
     fe0:	33ff      	adds	r3, #255	; 0xff
     fe2:	4298      	cmp	r0, r3
     fe4:	dd00      	ble.n	fe8 <main+0x870>
     fe6:	e6c8      	b.n	d7a <main+0x602>
					y_blue = xy_fade_up[abs(adc_get_Y())]; // fade blue up
     fe8:	4b29      	ldr	r3, [pc, #164]	; (1090 <main+0x918>)
     fea:	4798      	blx	r3
     fec:	17c3      	asrs	r3, r0, #31
     fee:	18c0      	adds	r0, r0, r3
     ff0:	4058      	eors	r0, r3
     ff2:	0040      	lsls	r0, r0, #1
     ff4:	4b22      	ldr	r3, [pc, #136]	; (1080 <main+0x908>)
     ff6:	1818      	adds	r0, r3, r0
     ff8:	8c03      	ldrh	r3, [r0, #32]
     ffa:	9304      	str	r3, [sp, #16]
					y_green = 0;
     ffc:	2300      	movs	r3, #0
     ffe:	9303      	str	r3, [sp, #12]
					y_red = 0;
    1000:	9302      	str	r3, [sp, #8]
				uint16_t high_val = (abs(adc_get_X()) > abs(adc_get_Y()))? abs(adc_get_X()) : abs(adc_get_Y()); // get higher value between x and y
    1002:	4b28      	ldr	r3, [pc, #160]	; (10a4 <main+0x92c>)
    1004:	4798      	blx	r3
    1006:	0004      	movs	r4, r0
    1008:	4b21      	ldr	r3, [pc, #132]	; (1090 <main+0x918>)
    100a:	4798      	blx	r3
    100c:	17e3      	asrs	r3, r4, #31
    100e:	18e4      	adds	r4, r4, r3
    1010:	405c      	eors	r4, r3
    1012:	17c3      	asrs	r3, r0, #31
    1014:	18c0      	adds	r0, r0, r3
    1016:	4058      	eors	r0, r3
    1018:	4284      	cmp	r4, r0
    101a:	dc00      	bgt.n	101e <main+0x8a6>
    101c:	e729      	b.n	e72 <main+0x6fa>
    101e:	4b21      	ldr	r3, [pc, #132]	; (10a4 <main+0x92c>)
    1020:	4798      	blx	r3
    1022:	17c3      	asrs	r3, r0, #31
    1024:	18c0      	adds	r0, r0, r3
    1026:	4058      	eors	r0, r3
    1028:	b280      	uxth	r0, r0
				if (high_val <= 410)
    102a:	23cd      	movs	r3, #205	; 0xcd
    102c:	005b      	lsls	r3, r3, #1
    102e:	4298      	cmp	r0, r3
    1030:	d900      	bls.n	1034 <main+0x8bc>
    1032:	e725      	b.n	e80 <main+0x708>
					middle_red = xy_fade_up[410 - high_val]; // fade red up
    1034:	1a18      	subs	r0, r3, r0
    1036:	0040      	lsls	r0, r0, #1
    1038:	4b11      	ldr	r3, [pc, #68]	; (1080 <main+0x908>)
    103a:	1818      	adds	r0, r3, r0
    103c:	8c07      	ldrh	r7, [r0, #32]
					middle_blue = 4095; // max blue
    103e:	4c1a      	ldr	r4, [pc, #104]	; (10a8 <main+0x930>)
					middle_green = 4095; // max green
    1040:	9401      	str	r4, [sp, #4]
				if (adc_get_X() < 0)
    1042:	4b18      	ldr	r3, [pc, #96]	; (10a4 <main+0x92c>)
    1044:	4798      	blx	r3
    1046:	2800      	cmp	r0, #0
    1048:	da00      	bge.n	104c <main+0x8d4>
    104a:	e77c      	b.n	f46 <main+0x7ce>
				else if (adc_get_X() > 0)
    104c:	4b15      	ldr	r3, [pc, #84]	; (10a4 <main+0x92c>)
    104e:	4798      	blx	r3
    1050:	2800      	cmp	r0, #0
    1052:	dc00      	bgt.n	1056 <main+0x8de>
    1054:	e77d      	b.n	f52 <main+0x7da>
					led_write(2, x_red, x_green, x_blue);
    1056:	465b      	mov	r3, fp
    1058:	9a06      	ldr	r2, [sp, #24]
    105a:	9905      	ldr	r1, [sp, #20]
    105c:	2002      	movs	r0, #2
    105e:	4d0b      	ldr	r5, [pc, #44]	; (108c <main+0x914>)
    1060:	47a8      	blx	r5
    1062:	e776      	b.n	f52 <main+0x7da>
				else if (adc_get_Y() < 0)
    1064:	4b0a      	ldr	r3, [pc, #40]	; (1090 <main+0x918>)
    1066:	4798      	blx	r3
    1068:	2800      	cmp	r0, #0
    106a:	db00      	blt.n	106e <main+0x8f6>
    106c:	e77c      	b.n	f68 <main+0x7f0>
					led_write(3, y_red, y_green, y_blue);
    106e:	9b04      	ldr	r3, [sp, #16]
    1070:	9a03      	ldr	r2, [sp, #12]
    1072:	9902      	ldr	r1, [sp, #8]
    1074:	2003      	movs	r0, #3
    1076:	4d05      	ldr	r5, [pc, #20]	; (108c <main+0x914>)
    1078:	47a8      	blx	r5
    107a:	e775      	b.n	f68 <main+0x7f0>
    107c:	000004ce 	.word	0x000004ce
    1080:	00001c20 	.word	0x00001c20
    1084:	00001f20 	.word	0x00001f20
    1088:	000007ff 	.word	0x000007ff
    108c:	0000068d 	.word	0x0000068d
    1090:	00000229 	.word	0x00000229
    1094:	000011f9 	.word	0x000011f9
    1098:	00000465 	.word	0x00000465
    109c:	00000471 	.word	0x00000471
    10a0:	000006e5 	.word	0x000006e5
    10a4:	00000241 	.word	0x00000241
    10a8:	00000fff 	.word	0x00000fff

000010ac <SysTick_Handler>:
//     | .__/ |  \ .__/
//
//-----------------------------------------------------------------------------
void SysTick_Handler ()
{
	millis++;
    10ac:	4a02      	ldr	r2, [pc, #8]	; (10b8 <SysTick_Handler+0xc>)
    10ae:	6813      	ldr	r3, [r2, #0]
    10b0:	3301      	adds	r3, #1
    10b2:	6013      	str	r3, [r2, #0]
    10b4:	4770      	bx	lr
    10b6:	46c0      	nop			; (mov r8, r8)
    10b8:	20000490 	.word	0x20000490

000010bc <spi_init>:
    10bc:	b570      	push	{r4, r5, r6, lr}
    10be:	4b3b      	ldr	r3, [pc, #236]	; (11ac <spi_init+0xf0>)
    10c0:	20b5      	movs	r0, #181	; 0xb5
    10c2:	5c19      	ldrb	r1, [r3, r0]
    10c4:	260f      	movs	r6, #15
    10c6:	43b1      	bics	r1, r6
    10c8:	2503      	movs	r5, #3
    10ca:	4329      	orrs	r1, r5
    10cc:	5419      	strb	r1, [r3, r0]
    10ce:	22ca      	movs	r2, #202	; 0xca
    10d0:	5c9c      	ldrb	r4, [r3, r2]
    10d2:	2101      	movs	r1, #1
    10d4:	430c      	orrs	r4, r1
    10d6:	549c      	strb	r4, [r3, r2]
    10d8:	2436      	movs	r4, #54	; 0x36
    10da:	5d1a      	ldrb	r2, [r3, r4]
    10dc:	43b2      	bics	r2, r6
    10de:	432a      	orrs	r2, r5
    10e0:	551a      	strb	r2, [r3, r4]
    10e2:	3416      	adds	r4, #22
    10e4:	5d1a      	ldrb	r2, [r3, r4]
    10e6:	430a      	orrs	r2, r1
    10e8:	551a      	strb	r2, [r3, r4]
    10ea:	5c1c      	ldrb	r4, [r3, r0]
    10ec:	220f      	movs	r2, #15
    10ee:	4022      	ands	r2, r4
    10f0:	2430      	movs	r4, #48	; 0x30
    10f2:	4322      	orrs	r2, r4
    10f4:	541a      	strb	r2, [r3, r0]
    10f6:	3016      	adds	r0, #22
    10f8:	5c1a      	ldrb	r2, [r3, r0]
    10fa:	430a      	orrs	r2, r1
    10fc:	541a      	strb	r2, [r3, r0]
    10fe:	4a2c      	ldr	r2, [pc, #176]	; (11b0 <spi_init+0xf4>)
    1100:	6813      	ldr	r3, [r2, #0]
    1102:	2102      	movs	r1, #2
    1104:	438b      	bics	r3, r1
    1106:	6013      	str	r3, [r2, #0]
    1108:	69d3      	ldr	r3, [r2, #28]
    110a:	079b      	lsls	r3, r3, #30
    110c:	d4fc      	bmi.n	1108 <spi_init+0x4c>
    110e:	4a29      	ldr	r2, [pc, #164]	; (11b4 <spi_init+0xf8>)
    1110:	6a13      	ldr	r3, [r2, #32]
    1112:	2140      	movs	r1, #64	; 0x40
    1114:	430b      	orrs	r3, r1
    1116:	6213      	str	r3, [r2, #32]
    1118:	4a27      	ldr	r2, [pc, #156]	; (11b8 <spi_init+0xfc>)
    111a:	4b28      	ldr	r3, [pc, #160]	; (11bc <spi_init+0x100>)
    111c:	805a      	strh	r2, [r3, #2]
    111e:	001a      	movs	r2, r3
    1120:	7853      	ldrb	r3, [r2, #1]
    1122:	b25b      	sxtb	r3, r3
    1124:	2b00      	cmp	r3, #0
    1126:	dbfb      	blt.n	1120 <spi_init+0x64>
    1128:	4a21      	ldr	r2, [pc, #132]	; (11b0 <spi_init+0xf4>)
    112a:	6813      	ldr	r3, [r2, #0]
    112c:	2101      	movs	r1, #1
    112e:	430b      	orrs	r3, r1
    1130:	6013      	str	r3, [r2, #0]
    1132:	6813      	ldr	r3, [r2, #0]
    1134:	07db      	lsls	r3, r3, #31
    1136:	d4fc      	bmi.n	1132 <spi_init+0x76>
    1138:	69d3      	ldr	r3, [r2, #28]
    113a:	07db      	lsls	r3, r3, #31
    113c:	d4f9      	bmi.n	1132 <spi_init+0x76>
    113e:	4b1c      	ldr	r3, [pc, #112]	; (11b0 <spi_init+0xf4>)
    1140:	681a      	ldr	r2, [r3, #0]
    1142:	491f      	ldr	r1, [pc, #124]	; (11c0 <spi_init+0x104>)
    1144:	400a      	ands	r2, r1
    1146:	601a      	str	r2, [r3, #0]
    1148:	681a      	ldr	r2, [r3, #0]
    114a:	491e      	ldr	r1, [pc, #120]	; (11c4 <spi_init+0x108>)
    114c:	4011      	ands	r1, r2
    114e:	2280      	movs	r2, #128	; 0x80
    1150:	0252      	lsls	r2, r2, #9
    1152:	430a      	orrs	r2, r1
    1154:	601a      	str	r2, [r3, #0]
    1156:	681a      	ldr	r2, [r3, #0]
    1158:	491b      	ldr	r1, [pc, #108]	; (11c8 <spi_init+0x10c>)
    115a:	400a      	ands	r2, r1
    115c:	601a      	str	r2, [r3, #0]
    115e:	681a      	ldr	r2, [r3, #0]
    1160:	491a      	ldr	r1, [pc, #104]	; (11cc <spi_init+0x110>)
    1162:	400a      	ands	r2, r1
    1164:	601a      	str	r2, [r3, #0]
    1166:	681a      	ldr	r2, [r3, #0]
    1168:	4919      	ldr	r1, [pc, #100]	; (11d0 <spi_init+0x114>)
    116a:	400a      	ands	r2, r1
    116c:	601a      	str	r2, [r3, #0]
    116e:	681a      	ldr	r2, [r3, #0]
    1170:	211c      	movs	r1, #28
    1172:	438a      	bics	r2, r1
    1174:	3910      	subs	r1, #16
    1176:	430a      	orrs	r2, r1
    1178:	601a      	str	r2, [r3, #0]
    117a:	6859      	ldr	r1, [r3, #4]
    117c:	2280      	movs	r2, #128	; 0x80
    117e:	0292      	lsls	r2, r2, #10
    1180:	430a      	orrs	r2, r1
    1182:	605a      	str	r2, [r3, #4]
    1184:	001a      	movs	r2, r3
    1186:	69d3      	ldr	r3, [r2, #28]
    1188:	075b      	lsls	r3, r3, #29
    118a:	d4fc      	bmi.n	1186 <spi_init+0xca>
    118c:	4b08      	ldr	r3, [pc, #32]	; (11b0 <spi_init+0xf4>)
    118e:	220b      	movs	r2, #11
    1190:	731a      	strb	r2, [r3, #12]
    1192:	681a      	ldr	r2, [r3, #0]
    1194:	2102      	movs	r1, #2
    1196:	430a      	orrs	r2, r1
    1198:	601a      	str	r2, [r3, #0]
    119a:	001a      	movs	r2, r3
    119c:	69d3      	ldr	r3, [r2, #28]
    119e:	079b      	lsls	r3, r3, #30
    11a0:	d4fc      	bmi.n	119c <spi_init+0xe0>
    NVIC->ISER[0U] = (uint32_t)(1UL << (((uint32_t)IRQn) & 0x1FUL));
    11a2:	2280      	movs	r2, #128	; 0x80
    11a4:	0192      	lsls	r2, r2, #6
    11a6:	4b0b      	ldr	r3, [pc, #44]	; (11d4 <spi_init+0x118>)
    11a8:	601a      	str	r2, [r3, #0]
    11aa:	bd70      	pop	{r4, r5, r6, pc}
    11ac:	41004400 	.word	0x41004400
    11b0:	42001800 	.word	0x42001800
    11b4:	40000400 	.word	0x40000400
    11b8:	00004018 	.word	0x00004018
    11bc:	40000c00 	.word	0x40000c00
    11c0:	ffcfffff 	.word	0xffcfffff
    11c4:	fffcffff 	.word	0xfffcffff
    11c8:	bfffffff 	.word	0xbfffffff
    11cc:	dfffffff 	.word	0xdfffffff
    11d0:	efffffff 	.word	0xefffffff
    11d4:	e000e100 	.word	0xe000e100

000011d8 <spi_lock>:
  __ASM volatile ("cpsid i" : : : "memory");
    11d8:	b672      	cpsid	i
    11da:	4b06      	ldr	r3, [pc, #24]	; (11f4 <spi_lock+0x1c>)
    11dc:	781b      	ldrb	r3, [r3, #0]
    11de:	2b00      	cmp	r3, #0
    11e0:	d105      	bne.n	11ee <spi_lock+0x16>
    11e2:	2201      	movs	r2, #1
    11e4:	4b03      	ldr	r3, [pc, #12]	; (11f4 <spi_lock+0x1c>)
    11e6:	701a      	strb	r2, [r3, #0]
  __ASM volatile ("cpsie i" : : : "memory");
    11e8:	b662      	cpsie	i
    11ea:	2001      	movs	r0, #1
    11ec:	4770      	bx	lr
    11ee:	b662      	cpsie	i
    11f0:	2000      	movs	r0, #0
    11f2:	e7fb      	b.n	11ec <spi_lock+0x14>
    11f4:	2000049b 	.word	0x2000049b

000011f8 <spi_write>:
    11f8:	b510      	push	{r4, lr}
    11fa:	4b06      	ldr	r3, [pc, #24]	; (1214 <spi_write+0x1c>)
    11fc:	4798      	blx	r3
    11fe:	2800      	cmp	r0, #0
    1200:	d007      	beq.n	1212 <spi_write+0x1a>
    1202:	2201      	movs	r2, #1
    1204:	4b04      	ldr	r3, [pc, #16]	; (1218 <spi_write+0x20>)
    1206:	701a      	strb	r2, [r3, #0]
    1208:	4b04      	ldr	r3, [pc, #16]	; (121c <spi_write+0x24>)
    120a:	7819      	ldrb	r1, [r3, #0]
    120c:	4b04      	ldr	r3, [pc, #16]	; (1220 <spi_write+0x28>)
    120e:	6299      	str	r1, [r3, #40]	; 0x28
    1210:	759a      	strb	r2, [r3, #22]
    1212:	bd10      	pop	{r4, pc}
    1214:	000011d9 	.word	0x000011d9
    1218:	20000006 	.word	0x20000006
    121c:	20000478 	.word	0x20000478
    1220:	42001800 	.word	0x42001800

00001224 <spi_write_completed>:
    1224:	4b03      	ldr	r3, [pc, #12]	; (1234 <spi_write_completed+0x10>)
    1226:	7858      	ldrb	r0, [r3, #1]
    1228:	b2c0      	uxtb	r0, r0
    122a:	2800      	cmp	r0, #0
    122c:	d001      	beq.n	1232 <spi_write_completed+0xe>
    122e:	2200      	movs	r2, #0
    1230:	705a      	strb	r2, [r3, #1]
    1232:	4770      	bx	lr
    1234:	2000049b 	.word	0x2000049b

00001238 <SERCOM4_Handler>:
    1238:	4b16      	ldr	r3, [pc, #88]	; (1294 <SERCOM4_Handler+0x5c>)
    123a:	7e1b      	ldrb	r3, [r3, #24]
    123c:	07db      	lsls	r3, r3, #31
    123e:	d511      	bpl.n	1264 <SERCOM4_Handler+0x2c>
    1240:	4b15      	ldr	r3, [pc, #84]	; (1298 <SERCOM4_Handler+0x60>)
    1242:	781b      	ldrb	r3, [r3, #0]
    1244:	b2db      	uxtb	r3, r3
    1246:	2b17      	cmp	r3, #23
    1248:	d811      	bhi.n	126e <SERCOM4_Handler+0x36>
    124a:	4913      	ldr	r1, [pc, #76]	; (1298 <SERCOM4_Handler+0x60>)
    124c:	780b      	ldrb	r3, [r1, #0]
    124e:	b2db      	uxtb	r3, r3
    1250:	1c5a      	adds	r2, r3, #1
    1252:	b2d2      	uxtb	r2, r2
    1254:	700a      	strb	r2, [r1, #0]
    1256:	4a11      	ldr	r2, [pc, #68]	; (129c <SERCOM4_Handler+0x64>)
    1258:	5cd2      	ldrb	r2, [r2, r3]
    125a:	4b0e      	ldr	r3, [pc, #56]	; (1294 <SERCOM4_Handler+0x5c>)
    125c:	629a      	str	r2, [r3, #40]	; 0x28
    125e:	2201      	movs	r2, #1
    1260:	4b0c      	ldr	r3, [pc, #48]	; (1294 <SERCOM4_Handler+0x5c>)
    1262:	761a      	strb	r2, [r3, #24]
    1264:	4b0b      	ldr	r3, [pc, #44]	; (1294 <SERCOM4_Handler+0x5c>)
    1266:	7e1b      	ldrb	r3, [r3, #24]
    1268:	079b      	lsls	r3, r3, #30
    126a:	d406      	bmi.n	127a <SERCOM4_Handler+0x42>
    126c:	4770      	bx	lr
    126e:	4b09      	ldr	r3, [pc, #36]	; (1294 <SERCOM4_Handler+0x5c>)
    1270:	2201      	movs	r2, #1
    1272:	751a      	strb	r2, [r3, #20]
    1274:	3201      	adds	r2, #1
    1276:	759a      	strb	r2, [r3, #22]
    1278:	e7f1      	b.n	125e <SERCOM4_Handler+0x26>
    127a:	4b06      	ldr	r3, [pc, #24]	; (1294 <SERCOM4_Handler+0x5c>)
    127c:	2202      	movs	r2, #2
    127e:	761a      	strb	r2, [r3, #24]
    1280:	751a      	strb	r2, [r3, #20]
    1282:	3a01      	subs	r2, #1
    1284:	4b04      	ldr	r3, [pc, #16]	; (1298 <SERCOM4_Handler+0x60>)
    1286:	701a      	strb	r2, [r3, #0]
    1288:	4b05      	ldr	r3, [pc, #20]	; (12a0 <SERCOM4_Handler+0x68>)
    128a:	705a      	strb	r2, [r3, #1]
    128c:	2200      	movs	r2, #0
    128e:	701a      	strb	r2, [r3, #0]
    1290:	e7ec      	b.n	126c <SERCOM4_Handler+0x34>
    1292:	46c0      	nop			; (mov r8, r8)
    1294:	42001800 	.word	0x42001800
    1298:	20000006 	.word	0x20000006
    129c:	20000478 	.word	0x20000478
    12a0:	2000049b 	.word	0x2000049b

000012a4 <timer_set_period>:
    12a4:	4b0e      	ldr	r3, [pc, #56]	; (12e0 <timer_set_period+0x3c>)
    12a6:	66d8      	str	r0, [r3, #108]	; 0x6c
    12a8:	01c0      	lsls	r0, r0, #7
    12aa:	6f1a      	ldr	r2, [r3, #112]	; 0x70
    12ac:	0a00      	lsrs	r0, r0, #8
    12ae:	0e12      	lsrs	r2, r2, #24
    12b0:	0612      	lsls	r2, r2, #24
    12b2:	4302      	orrs	r2, r0
    12b4:	671a      	str	r2, [r3, #112]	; 0x70
    12b6:	6f5a      	ldr	r2, [r3, #116]	; 0x74
    12b8:	0e12      	lsrs	r2, r2, #24
    12ba:	0612      	lsls	r2, r2, #24
    12bc:	4302      	orrs	r2, r0
    12be:	675a      	str	r2, [r3, #116]	; 0x74
    12c0:	6f9a      	ldr	r2, [r3, #120]	; 0x78
    12c2:	0e12      	lsrs	r2, r2, #24
    12c4:	0612      	lsls	r2, r2, #24
    12c6:	4302      	orrs	r2, r0
    12c8:	679a      	str	r2, [r3, #120]	; 0x78
    12ca:	6fda      	ldr	r2, [r3, #124]	; 0x7c
    12cc:	0e12      	lsrs	r2, r2, #24
    12ce:	0612      	lsls	r2, r2, #24
    12d0:	4310      	orrs	r0, r2
    12d2:	67d8      	str	r0, [r3, #124]	; 0x7c
    12d4:	001a      	movs	r2, r3
    12d6:	6893      	ldr	r3, [r2, #8]
    12d8:	031b      	lsls	r3, r3, #12
    12da:	d4fc      	bmi.n	12d6 <timer_set_period+0x32>
    12dc:	4770      	bx	lr
    12de:	46c0      	nop			; (mov r8, r8)
    12e0:	42002000 	.word	0x42002000

000012e4 <timer_init>:
    12e4:	b510      	push	{r4, lr}
    12e6:	4a1b      	ldr	r2, [pc, #108]	; (1354 <timer_init+0x70>)
    12e8:	6a11      	ldr	r1, [r2, #32]
    12ea:	2380      	movs	r3, #128	; 0x80
    12ec:	005b      	lsls	r3, r3, #1
    12ee:	430b      	orrs	r3, r1
    12f0:	6213      	str	r3, [r2, #32]
    12f2:	4a19      	ldr	r2, [pc, #100]	; (1358 <timer_init+0x74>)
    12f4:	4b19      	ldr	r3, [pc, #100]	; (135c <timer_init+0x78>)
    12f6:	805a      	strh	r2, [r3, #2]
    12f8:	001a      	movs	r2, r3
    12fa:	7853      	ldrb	r3, [r2, #1]
    12fc:	b25b      	sxtb	r3, r3
    12fe:	2b00      	cmp	r3, #0
    1300:	dbfb      	blt.n	12fa <timer_init+0x16>
    1302:	4a17      	ldr	r2, [pc, #92]	; (1360 <timer_init+0x7c>)
    1304:	6813      	ldr	r3, [r2, #0]
    1306:	2102      	movs	r1, #2
    1308:	438b      	bics	r3, r1
    130a:	6013      	str	r3, [r2, #0]
    130c:	4915      	ldr	r1, [pc, #84]	; (1364 <timer_init+0x80>)
    130e:	204f      	movs	r0, #79	; 0x4f
    1310:	5c0b      	ldrb	r3, [r1, r0]
    1312:	2401      	movs	r4, #1
    1314:	4323      	orrs	r3, r4
    1316:	540b      	strb	r3, [r1, r0]
    1318:	3818      	subs	r0, #24
    131a:	5c0c      	ldrb	r4, [r1, r0]
    131c:	230f      	movs	r3, #15
    131e:	4023      	ands	r3, r4
    1320:	2450      	movs	r4, #80	; 0x50
    1322:	4323      	orrs	r3, r4
    1324:	540b      	strb	r3, [r1, r0]
    1326:	6bd3      	ldr	r3, [r2, #60]	; 0x3c
    1328:	2107      	movs	r1, #7
    132a:	438b      	bics	r3, r1
    132c:	3906      	subs	r1, #6
    132e:	430b      	orrs	r3, r1
    1330:	63d3      	str	r3, [r2, #60]	; 0x3c
    1332:	6893      	ldr	r3, [r2, #8]
    1334:	065b      	lsls	r3, r3, #25
    1336:	d4fc      	bmi.n	1332 <timer_init+0x4e>
    1338:	20c8      	movs	r0, #200	; 0xc8
    133a:	4b0b      	ldr	r3, [pc, #44]	; (1368 <timer_init+0x84>)
    133c:	4798      	blx	r3
    133e:	4b08      	ldr	r3, [pc, #32]	; (1360 <timer_init+0x7c>)
    1340:	681a      	ldr	r2, [r3, #0]
    1342:	490a      	ldr	r1, [pc, #40]	; (136c <timer_init+0x88>)
    1344:	400a      	ands	r2, r1
    1346:	601a      	str	r2, [r3, #0]
    1348:	6a19      	ldr	r1, [r3, #32]
    134a:	2280      	movs	r2, #128	; 0x80
    134c:	0452      	lsls	r2, r2, #17
    134e:	430a      	orrs	r2, r1
    1350:	621a      	str	r2, [r3, #32]
    1352:	bd10      	pop	{r4, pc}
    1354:	40000400 	.word	0x40000400
    1358:	0000401a 	.word	0x0000401a
    135c:	40000c00 	.word	0x40000c00
    1360:	42002000 	.word	0x42002000
    1364:	41004400 	.word	0x41004400
    1368:	000012a5 	.word	0x000012a5
    136c:	fffff8ff 	.word	0xfffff8ff

00001370 <timer_enable>:
    1370:	4a02      	ldr	r2, [pc, #8]	; (137c <timer_enable+0xc>)
    1372:	6813      	ldr	r3, [r2, #0]
    1374:	2102      	movs	r1, #2
    1376:	430b      	orrs	r3, r1
    1378:	6013      	str	r3, [r2, #0]
    137a:	4770      	bx	lr
    137c:	42002000 	.word	0x42002000

00001380 <__udivsi3>:
    1380:	2200      	movs	r2, #0
    1382:	0843      	lsrs	r3, r0, #1
    1384:	428b      	cmp	r3, r1
    1386:	d374      	bcc.n	1472 <__udivsi3+0xf2>
    1388:	0903      	lsrs	r3, r0, #4
    138a:	428b      	cmp	r3, r1
    138c:	d35f      	bcc.n	144e <__udivsi3+0xce>
    138e:	0a03      	lsrs	r3, r0, #8
    1390:	428b      	cmp	r3, r1
    1392:	d344      	bcc.n	141e <__udivsi3+0x9e>
    1394:	0b03      	lsrs	r3, r0, #12
    1396:	428b      	cmp	r3, r1
    1398:	d328      	bcc.n	13ec <__udivsi3+0x6c>
    139a:	0c03      	lsrs	r3, r0, #16
    139c:	428b      	cmp	r3, r1
    139e:	d30d      	bcc.n	13bc <__udivsi3+0x3c>
    13a0:	22ff      	movs	r2, #255	; 0xff
    13a2:	0209      	lsls	r1, r1, #8
    13a4:	ba12      	rev	r2, r2
    13a6:	0c03      	lsrs	r3, r0, #16
    13a8:	428b      	cmp	r3, r1
    13aa:	d302      	bcc.n	13b2 <__udivsi3+0x32>
    13ac:	1212      	asrs	r2, r2, #8
    13ae:	0209      	lsls	r1, r1, #8
    13b0:	d065      	beq.n	147e <__udivsi3+0xfe>
    13b2:	0b03      	lsrs	r3, r0, #12
    13b4:	428b      	cmp	r3, r1
    13b6:	d319      	bcc.n	13ec <__udivsi3+0x6c>
    13b8:	e000      	b.n	13bc <__udivsi3+0x3c>
    13ba:	0a09      	lsrs	r1, r1, #8
    13bc:	0bc3      	lsrs	r3, r0, #15
    13be:	428b      	cmp	r3, r1
    13c0:	d301      	bcc.n	13c6 <__udivsi3+0x46>
    13c2:	03cb      	lsls	r3, r1, #15
    13c4:	1ac0      	subs	r0, r0, r3
    13c6:	4152      	adcs	r2, r2
    13c8:	0b83      	lsrs	r3, r0, #14
    13ca:	428b      	cmp	r3, r1
    13cc:	d301      	bcc.n	13d2 <__udivsi3+0x52>
    13ce:	038b      	lsls	r3, r1, #14
    13d0:	1ac0      	subs	r0, r0, r3
    13d2:	4152      	adcs	r2, r2
    13d4:	0b43      	lsrs	r3, r0, #13
    13d6:	428b      	cmp	r3, r1
    13d8:	d301      	bcc.n	13de <__udivsi3+0x5e>
    13da:	034b      	lsls	r3, r1, #13
    13dc:	1ac0      	subs	r0, r0, r3
    13de:	4152      	adcs	r2, r2
    13e0:	0b03      	lsrs	r3, r0, #12
    13e2:	428b      	cmp	r3, r1
    13e4:	d301      	bcc.n	13ea <__udivsi3+0x6a>
    13e6:	030b      	lsls	r3, r1, #12
    13e8:	1ac0      	subs	r0, r0, r3
    13ea:	4152      	adcs	r2, r2
    13ec:	0ac3      	lsrs	r3, r0, #11
    13ee:	428b      	cmp	r3, r1
    13f0:	d301      	bcc.n	13f6 <__udivsi3+0x76>
    13f2:	02cb      	lsls	r3, r1, #11
    13f4:	1ac0      	subs	r0, r0, r3
    13f6:	4152      	adcs	r2, r2
    13f8:	0a83      	lsrs	r3, r0, #10
    13fa:	428b      	cmp	r3, r1
    13fc:	d301      	bcc.n	1402 <__udivsi3+0x82>
    13fe:	028b      	lsls	r3, r1, #10
    1400:	1ac0      	subs	r0, r0, r3
    1402:	4152      	adcs	r2, r2
    1404:	0a43      	lsrs	r3, r0, #9
    1406:	428b      	cmp	r3, r1
    1408:	d301      	bcc.n	140e <__udivsi3+0x8e>
    140a:	024b      	lsls	r3, r1, #9
    140c:	1ac0      	subs	r0, r0, r3
    140e:	4152      	adcs	r2, r2
    1410:	0a03      	lsrs	r3, r0, #8
    1412:	428b      	cmp	r3, r1
    1414:	d301      	bcc.n	141a <__udivsi3+0x9a>
    1416:	020b      	lsls	r3, r1, #8
    1418:	1ac0      	subs	r0, r0, r3
    141a:	4152      	adcs	r2, r2
    141c:	d2cd      	bcs.n	13ba <__udivsi3+0x3a>
    141e:	09c3      	lsrs	r3, r0, #7
    1420:	428b      	cmp	r3, r1
    1422:	d301      	bcc.n	1428 <__udivsi3+0xa8>
    1424:	01cb      	lsls	r3, r1, #7
    1426:	1ac0      	subs	r0, r0, r3
    1428:	4152      	adcs	r2, r2
    142a:	0983      	lsrs	r3, r0, #6
    142c:	428b      	cmp	r3, r1
    142e:	d301      	bcc.n	1434 <__udivsi3+0xb4>
    1430:	018b      	lsls	r3, r1, #6
    1432:	1ac0      	subs	r0, r0, r3
    1434:	4152      	adcs	r2, r2
    1436:	0943      	lsrs	r3, r0, #5
    1438:	428b      	cmp	r3, r1
    143a:	d301      	bcc.n	1440 <__udivsi3+0xc0>
    143c:	014b      	lsls	r3, r1, #5
    143e:	1ac0      	subs	r0, r0, r3
    1440:	4152      	adcs	r2, r2
    1442:	0903      	lsrs	r3, r0, #4
    1444:	428b      	cmp	r3, r1
    1446:	d301      	bcc.n	144c <__udivsi3+0xcc>
    1448:	010b      	lsls	r3, r1, #4
    144a:	1ac0      	subs	r0, r0, r3
    144c:	4152      	adcs	r2, r2
    144e:	08c3      	lsrs	r3, r0, #3
    1450:	428b      	cmp	r3, r1
    1452:	d301      	bcc.n	1458 <__udivsi3+0xd8>
    1454:	00cb      	lsls	r3, r1, #3
    1456:	1ac0      	subs	r0, r0, r3
    1458:	4152      	adcs	r2, r2
    145a:	0883      	lsrs	r3, r0, #2
    145c:	428b      	cmp	r3, r1
    145e:	d301      	bcc.n	1464 <__udivsi3+0xe4>
    1460:	008b      	lsls	r3, r1, #2
    1462:	1ac0      	subs	r0, r0, r3
    1464:	4152      	adcs	r2, r2
    1466:	0843      	lsrs	r3, r0, #1
    1468:	428b      	cmp	r3, r1
    146a:	d301      	bcc.n	1470 <__udivsi3+0xf0>
    146c:	004b      	lsls	r3, r1, #1
    146e:	1ac0      	subs	r0, r0, r3
    1470:	4152      	adcs	r2, r2
    1472:	1a41      	subs	r1, r0, r1
    1474:	d200      	bcs.n	1478 <__udivsi3+0xf8>
    1476:	4601      	mov	r1, r0
    1478:	4152      	adcs	r2, r2
    147a:	4610      	mov	r0, r2
    147c:	4770      	bx	lr
    147e:	e7ff      	b.n	1480 <__udivsi3+0x100>
    1480:	b501      	push	{r0, lr}
    1482:	2000      	movs	r0, #0
    1484:	f000 f806 	bl	1494 <__aeabi_idiv0>
    1488:	bd02      	pop	{r1, pc}
    148a:	46c0      	nop			; (mov r8, r8)

0000148c <__aeabi_uidivmod>:
    148c:	2900      	cmp	r1, #0
    148e:	d0f7      	beq.n	1480 <__udivsi3+0x100>
    1490:	e776      	b.n	1380 <__udivsi3>
    1492:	4770      	bx	lr

00001494 <__aeabi_idiv0>:
    1494:	4770      	bx	lr
    1496:	46c0      	nop			; (mov r8, r8)

00001498 <__libc_init_array>:
    1498:	b570      	push	{r4, r5, r6, lr}
    149a:	4e0d      	ldr	r6, [pc, #52]	; (14d0 <__libc_init_array+0x38>)
    149c:	4d0d      	ldr	r5, [pc, #52]	; (14d4 <__libc_init_array+0x3c>)
    149e:	2400      	movs	r4, #0
    14a0:	1bad      	subs	r5, r5, r6
    14a2:	10ad      	asrs	r5, r5, #2
    14a4:	d005      	beq.n	14b2 <__libc_init_array+0x1a>
    14a6:	00a3      	lsls	r3, r4, #2
    14a8:	58f3      	ldr	r3, [r6, r3]
    14aa:	3401      	adds	r4, #1
    14ac:	4798      	blx	r3
    14ae:	42a5      	cmp	r5, r4
    14b0:	d1f9      	bne.n	14a6 <__libc_init_array+0xe>
    14b2:	f000 fefb 	bl	22ac <_init>
    14b6:	4e08      	ldr	r6, [pc, #32]	; (14d8 <__libc_init_array+0x40>)
    14b8:	4d08      	ldr	r5, [pc, #32]	; (14dc <__libc_init_array+0x44>)
    14ba:	2400      	movs	r4, #0
    14bc:	1bad      	subs	r5, r5, r6
    14be:	10ad      	asrs	r5, r5, #2
    14c0:	d005      	beq.n	14ce <__libc_init_array+0x36>
    14c2:	00a3      	lsls	r3, r4, #2
    14c4:	58f3      	ldr	r3, [r6, r3]
    14c6:	3401      	adds	r4, #1
    14c8:	4798      	blx	r3
    14ca:	42a5      	cmp	r5, r4
    14cc:	d1f9      	bne.n	14c2 <__libc_init_array+0x2a>
    14ce:	bd70      	pop	{r4, r5, r6, pc}
    14d0:	000022b8 	.word	0x000022b8
    14d4:	000022b8 	.word	0x000022b8
    14d8:	000022b8 	.word	0x000022b8
    14dc:	000022c0 	.word	0x000022c0

000014e0 <register_fini>:
    14e0:	4b03      	ldr	r3, [pc, #12]	; (14f0 <register_fini+0x10>)
    14e2:	b510      	push	{r4, lr}
    14e4:	2b00      	cmp	r3, #0
    14e6:	d002      	beq.n	14ee <register_fini+0xe>
    14e8:	4802      	ldr	r0, [pc, #8]	; (14f4 <register_fini+0x14>)
    14ea:	f000 f805 	bl	14f8 <atexit>
    14ee:	bd10      	pop	{r4, pc}
    14f0:	00000000 	.word	0x00000000
    14f4:	00001509 	.word	0x00001509

000014f8 <atexit>:
    14f8:	b510      	push	{r4, lr}
    14fa:	0001      	movs	r1, r0
    14fc:	2300      	movs	r3, #0
    14fe:	2200      	movs	r2, #0
    1500:	2000      	movs	r0, #0
    1502:	f000 f81f 	bl	1544 <__register_exitproc>
    1506:	bd10      	pop	{r4, pc}

00001508 <__libc_fini_array>:
    1508:	b570      	push	{r4, r5, r6, lr}
    150a:	4b09      	ldr	r3, [pc, #36]	; (1530 <__libc_fini_array+0x28>)
    150c:	4c09      	ldr	r4, [pc, #36]	; (1534 <__libc_fini_array+0x2c>)
    150e:	1ae4      	subs	r4, r4, r3
    1510:	10a4      	asrs	r4, r4, #2
    1512:	d009      	beq.n	1528 <__libc_fini_array+0x20>
    1514:	4a08      	ldr	r2, [pc, #32]	; (1538 <__libc_fini_array+0x30>)
    1516:	18a5      	adds	r5, r4, r2
    1518:	00ad      	lsls	r5, r5, #2
    151a:	18ed      	adds	r5, r5, r3
    151c:	682b      	ldr	r3, [r5, #0]
    151e:	3c01      	subs	r4, #1
    1520:	4798      	blx	r3
    1522:	3d04      	subs	r5, #4
    1524:	2c00      	cmp	r4, #0
    1526:	d1f9      	bne.n	151c <__libc_fini_array+0x14>
    1528:	f000 feca 	bl	22c0 <_fini>
    152c:	bd70      	pop	{r4, r5, r6, pc}
    152e:	46c0      	nop			; (mov r8, r8)
    1530:	000022cc 	.word	0x000022cc
    1534:	000022d0 	.word	0x000022d0
    1538:	3fffffff 	.word	0x3fffffff

0000153c <__retarget_lock_acquire_recursive>:
    153c:	4770      	bx	lr
    153e:	46c0      	nop			; (mov r8, r8)

00001540 <__retarget_lock_release_recursive>:
    1540:	4770      	bx	lr
    1542:	46c0      	nop			; (mov r8, r8)

00001544 <__register_exitproc>:
    1544:	b5f0      	push	{r4, r5, r6, r7, lr}
    1546:	464e      	mov	r6, r9
    1548:	4645      	mov	r5, r8
    154a:	46de      	mov	lr, fp
    154c:	4657      	mov	r7, sl
    154e:	b5e0      	push	{r5, r6, r7, lr}
    1550:	4d36      	ldr	r5, [pc, #216]	; (162c <__register_exitproc+0xe8>)
    1552:	b083      	sub	sp, #12
    1554:	0006      	movs	r6, r0
    1556:	6828      	ldr	r0, [r5, #0]
    1558:	4698      	mov	r8, r3
    155a:	000f      	movs	r7, r1
    155c:	4691      	mov	r9, r2
    155e:	f7ff ffed 	bl	153c <__retarget_lock_acquire_recursive>
    1562:	4b33      	ldr	r3, [pc, #204]	; (1630 <__register_exitproc+0xec>)
    1564:	681c      	ldr	r4, [r3, #0]
    1566:	23a4      	movs	r3, #164	; 0xa4
    1568:	005b      	lsls	r3, r3, #1
    156a:	58e0      	ldr	r0, [r4, r3]
    156c:	2800      	cmp	r0, #0
    156e:	d052      	beq.n	1616 <__register_exitproc+0xd2>
    1570:	6843      	ldr	r3, [r0, #4]
    1572:	2b1f      	cmp	r3, #31
    1574:	dc13      	bgt.n	159e <__register_exitproc+0x5a>
    1576:	1c5a      	adds	r2, r3, #1
    1578:	9201      	str	r2, [sp, #4]
    157a:	2e00      	cmp	r6, #0
    157c:	d128      	bne.n	15d0 <__register_exitproc+0x8c>
    157e:	9a01      	ldr	r2, [sp, #4]
    1580:	3302      	adds	r3, #2
    1582:	009b      	lsls	r3, r3, #2
    1584:	6042      	str	r2, [r0, #4]
    1586:	501f      	str	r7, [r3, r0]
    1588:	6828      	ldr	r0, [r5, #0]
    158a:	f7ff ffd9 	bl	1540 <__retarget_lock_release_recursive>
    158e:	2000      	movs	r0, #0
    1590:	b003      	add	sp, #12
    1592:	bc3c      	pop	{r2, r3, r4, r5}
    1594:	4690      	mov	r8, r2
    1596:	4699      	mov	r9, r3
    1598:	46a2      	mov	sl, r4
    159a:	46ab      	mov	fp, r5
    159c:	bdf0      	pop	{r4, r5, r6, r7, pc}
    159e:	4b25      	ldr	r3, [pc, #148]	; (1634 <__register_exitproc+0xf0>)
    15a0:	2b00      	cmp	r3, #0
    15a2:	d03d      	beq.n	1620 <__register_exitproc+0xdc>
    15a4:	20c8      	movs	r0, #200	; 0xc8
    15a6:	0040      	lsls	r0, r0, #1
    15a8:	e000      	b.n	15ac <__register_exitproc+0x68>
    15aa:	bf00      	nop
    15ac:	2800      	cmp	r0, #0
    15ae:	d037      	beq.n	1620 <__register_exitproc+0xdc>
    15b0:	22a4      	movs	r2, #164	; 0xa4
    15b2:	2300      	movs	r3, #0
    15b4:	0052      	lsls	r2, r2, #1
    15b6:	58a1      	ldr	r1, [r4, r2]
    15b8:	6043      	str	r3, [r0, #4]
    15ba:	6001      	str	r1, [r0, #0]
    15bc:	50a0      	str	r0, [r4, r2]
    15be:	3240      	adds	r2, #64	; 0x40
    15c0:	5083      	str	r3, [r0, r2]
    15c2:	3204      	adds	r2, #4
    15c4:	5083      	str	r3, [r0, r2]
    15c6:	3301      	adds	r3, #1
    15c8:	9301      	str	r3, [sp, #4]
    15ca:	2300      	movs	r3, #0
    15cc:	2e00      	cmp	r6, #0
    15ce:	d0d6      	beq.n	157e <__register_exitproc+0x3a>
    15d0:	009a      	lsls	r2, r3, #2
    15d2:	4692      	mov	sl, r2
    15d4:	4482      	add	sl, r0
    15d6:	464a      	mov	r2, r9
    15d8:	2188      	movs	r1, #136	; 0x88
    15da:	4654      	mov	r4, sl
    15dc:	5062      	str	r2, [r4, r1]
    15de:	22c4      	movs	r2, #196	; 0xc4
    15e0:	0052      	lsls	r2, r2, #1
    15e2:	4691      	mov	r9, r2
    15e4:	4481      	add	r9, r0
    15e6:	464a      	mov	r2, r9
    15e8:	3987      	subs	r1, #135	; 0x87
    15ea:	4099      	lsls	r1, r3
    15ec:	6812      	ldr	r2, [r2, #0]
    15ee:	468b      	mov	fp, r1
    15f0:	430a      	orrs	r2, r1
    15f2:	4694      	mov	ip, r2
    15f4:	464a      	mov	r2, r9
    15f6:	4661      	mov	r1, ip
    15f8:	6011      	str	r1, [r2, #0]
    15fa:	2284      	movs	r2, #132	; 0x84
    15fc:	4641      	mov	r1, r8
    15fe:	0052      	lsls	r2, r2, #1
    1600:	50a1      	str	r1, [r4, r2]
    1602:	2e02      	cmp	r6, #2
    1604:	d1bb      	bne.n	157e <__register_exitproc+0x3a>
    1606:	0002      	movs	r2, r0
    1608:	465c      	mov	r4, fp
    160a:	328d      	adds	r2, #141	; 0x8d
    160c:	32ff      	adds	r2, #255	; 0xff
    160e:	6811      	ldr	r1, [r2, #0]
    1610:	430c      	orrs	r4, r1
    1612:	6014      	str	r4, [r2, #0]
    1614:	e7b3      	b.n	157e <__register_exitproc+0x3a>
    1616:	0020      	movs	r0, r4
    1618:	304d      	adds	r0, #77	; 0x4d
    161a:	30ff      	adds	r0, #255	; 0xff
    161c:	50e0      	str	r0, [r4, r3]
    161e:	e7a7      	b.n	1570 <__register_exitproc+0x2c>
    1620:	6828      	ldr	r0, [r5, #0]
    1622:	f7ff ff8d 	bl	1540 <__retarget_lock_release_recursive>
    1626:	2001      	movs	r0, #1
    1628:	4240      	negs	r0, r0
    162a:	e7b1      	b.n	1590 <__register_exitproc+0x4c>
    162c:	20000430 	.word	0x20000430
    1630:	000022a8 	.word	0x000022a8
    1634:	00000000 	.word	0x00000000
    1638:	000006a2 	.word	0x000006a2
    163c:	0000069a 	.word	0x0000069a
    1640:	000006b0 	.word	0x000006b0
    1644:	000006ba 	.word	0x000006ba
    1648:	000006c4 	.word	0x000006c4
    164c:	000006ce 	.word	0x000006ce
    1650:	00000890 	.word	0x00000890
    1654:	000008c8 	.word	0x000008c8
    1658:	000008e2 	.word	0x000008e2
    165c:	000008f8 	.word	0x000008f8
    1660:	00000912 	.word	0x00000912
    1664:	00000928 	.word	0x00000928
    1668:	000009c0 	.word	0x000009c0
    166c:	00000a3e 	.word	0x00000a3e
    1670:	00000a5a 	.word	0x00000a5a
    1674:	00000a78 	.word	0x00000a78
    1678:	00000a92 	.word	0x00000a92
    167c:	00000ab0 	.word	0x00000ab0
    1680:	00000b40 	.word	0x00000b40
    1684:	00000b64 	.word	0x00000b64
    1688:	00000bbc 	.word	0x00000bbc
    168c:	00000bd6 	.word	0x00000bd6
    1690:	00000be2 	.word	0x00000be2
    1694:	00000bee 	.word	0x00000bee
    1698:	00000bfa 	.word	0x00000bfa
    169c:	00000c06 	.word	0x00000c06

000016a0 <fade_up>:
	...
    16d8:	00010001 00010001 00010001 00010001     ................
    16e8:	00010001 00020002 00020002 00020002     ................
    16f8:	00030003 00030003 00040004 00040004     ................
    1708:	00050005 00060005 00070006 00070007     ................
    1718:	00080008 00090009 000a000a 000b000b     ................
    1728:	000d000c 000e000d 0010000f 00110010     ................
    1738:	00130012 00140014 00160015 00180017     ................
    1748:	001a0019 001d001c 001f001e 00220020     ............ .".
    1758:	00240023 00270026 002a0028 002d002c     #.$.&.'.(.*.,.-.
    1768:	0030002f 00340032 00370036 003b0039     /.0.2.4.6.7.9.;.
    1778:	003f003d 00430041 00480045 004c004a     =.?.A.C.E.H.J.L.
    1788:	0051004f 00560053 005b0058 0060005e     O.Q.S.V.X.[.^.`.
    1798:	00660063 006c0069 0072006f 00780075     c.f.i.l.o.r.u.x.
    17a8:	007f007b 00860082 008d0089 00940090     {...............
    17b8:	009b0098 00a3009f 00ab00a7 00b400b0     ................
    17c8:	00bd00b8 00c600c1 00cf00ca 00d900d4     ................
    17d8:	00e300dd 00ed00e8 00f700f2 010200fd     ................
    17e8:	010e0108 01190113 0125011f 0131012b     ..........%.+.1.
    17f8:	013e0138 014b0145 01590152 0166015f     8.>.E.K.R.Y._.f.
    1808:	0175016d 0183017c 0192018b 01a2019a     m.u.|...........
    1818:	01b201aa 01c201ba 01d301ca 01e401db     ................
    1828:	01f501ec 020701fe 021a0210 022d0223     ............#.-.
    1838:	02400236 0254024a 0269025e 027d0273     6.@.J.T.^.i.s.}.
    1848:	02930288 02a9029e 02bf02b4 02d602cb     ................
    1858:	02ee02e2 030602f9 031e0312 0337032b     ............+.7.
    1868:	03510344 036b035e 03860378 03a10394     D.Q.^.k.x.......
    1878:	03bd03af 03da03cb 03f703e8 04150406     ................
    1888:	04330424 04520443 04720462 04920482     $.3.C.R.b.r.....
    1898:	04b304a3 04d504c4 04f704e6 051a0509     ................
    18a8:	053e052c 05620550 05870574 05ad059a     ,.>.P.b.t.......
    18b8:	05d305c0 05fa05e7 0622060e 064b0637     ..........".7.K.
    18c8:	06740660 069e0689 06c906b4 06f506df     `.t.............
    18d8:	0721070b 074f0738 077d0766 07ac0794     ..!.8.O.f.}.....
    18e8:	07db07c3 080c07f3 083d0824 086f0856     ........$.=.V.o.
    18f8:	08a20888 08d608bc 090b08f0 09400925     ............%.@.
    1908:	0977095b 09ae0992 09e609ca 0a1f0a03     [.w.............
    1918:	0a590a3c 0a940a77 0ad00ab2 0b0d0aee     <.Y.w...........
    1928:	0b4b0b2c 0b8a0b6a 0bc90ba9 0c0a0be9     ,.K.j...........
    1938:	0c4c0c2b 0c8e0c6d 0cd20cb0 0d170cf4     +.L.m...........
    1948:	0d5c0d39 0da30d80 0deb0dc7 0e340e0f     9.\...........4.
    1958:	0e7d0e58 0ec80ea3 0f140eee 0f620f3b     X.}.........;.b.
    1968:	0fb00f88 0fff0fd7                       ........

00001970 <fade_down>:
    1970:	0fd70fff 0f880fb0 0f3b0f62 0eee0f14     ........b.;.....
    1980:	0ea30ec8 0e580e7d 0e0f0e34 0dc70deb     ....}.X.4.......
    1990:	0d800da3 0d390d5c 0cf40d17 0cb00cd2     ....\.9.........
    19a0:	0c6d0c8e 0c2b0c4c 0be90c0a 0ba90bc9     ..m.L.+.........
    19b0:	0b6a0b8a 0b2c0b4b 0aee0b0d 0ab20ad0     ..j.K.,.........
    19c0:	0a770a94 0a3c0a59 0a030a1f 09ca09e6     ..w.Y.<.........
    19d0:	099209ae 095b0977 09250940 08f0090b     ....w.[.@.%.....
    19e0:	08bc08d6 088808a2 0856086f 0824083d     ........o.V.=.$.
    19f0:	07f3080c 07c307db 079407ac 0766077d     ............}.f.
    1a00:	0738074f 070b0721 06df06f5 06b406c9     O.8.!...........
    1a10:	0689069e 06600674 0637064b 060e0622     ....t.`.K.7."...
    1a20:	05e705fa 05c005d3 059a05ad 05740587     ..............t.
    1a30:	05500562 052c053e 0509051a 04e604f7     b.P.>.,.........
    1a40:	04c404d5 04a304b3 04820492 04620472     ............r.b.
    1a50:	04430452 04240433 04060415 03e803f7     R.C.3.$.........
    1a60:	03cb03da 03af03bd 039403a1 03780386     ..............x.
    1a70:	035e036b 03440351 032b0337 0312031e     k.^.Q.D.7.+.....
    1a80:	02f90306 02e202ee 02cb02d6 02b402bf     ................
    1a90:	029e02a9 02880293 0273027d 025e0269     ........}.s.i.^.
    1aa0:	024a0254 02360240 0223022d 0210021a     T.J.@.6.-.#.....
    1ab0:	01fe0207 01ec01f5 01db01e4 01ca01d3     ................
    1ac0:	01ba01c2 01aa01b2 019a01a2 018b0192     ................
    1ad0:	017c0183 016d0175 015f0166 01520159     ..|.u.m.f._.Y.R.
    1ae0:	0145014b 0138013e 012b0131 011f0125     K.E.>.8.1.+.%...
    1af0:	01130119 0108010e 00fd0102 00f200f7     ................
    1b00:	00e800ed 00dd00e3 00d400d9 00ca00cf     ................
    1b10:	00c100c6 00b800bd 00b000b4 00a700ab     ................
    1b20:	009f00a3 0098009b 00900094 0089008d     ................
    1b30:	00820086 007b007f 00750078 006f0072     ......{.x.u.r.o.
    1b40:	0069006c 00630066 005e0060 0058005b     l.i.f.c.`.^.[.X.
    1b50:	00530056 004f0051 004a004c 00450048     V.S.Q.O.L.J.H.E.
    1b60:	00410043 003d003f 0039003b 00360037     C.A.?.=.;.9.7.6.
    1b70:	00320034 002f0030 002c002d 0028002a     4.2.0./.-.,.*.(.
    1b80:	00260027 00230024 00200022 001e001f     '.&.$.#.". .....
    1b90:	001c001d 0019001a 00170018 00150016     ................
    1ba0:	00140014 00120013 00100011 000f0010     ................
    1bb0:	000d000e 000c000d 000b000b 000a000a     ................
    1bc0:	00090009 00080008 00070007 00060007     ................
    1bd0:	00050006 00050005 00040004 00040004     ................
    1be0:	00030003 00030003 00020002 00020002     ................
    1bf0:	00020002 00010001 00010001 00010001     ................
    1c00:	00010001 00010001 00010001 00010001     ................
	...

00001c40 <xy_fade_up>:
	...
    1c68:	00010000 00010001 00010001 00010001     ................
    1c78:	00010001 00020002 00020002 00030002     ................
    1c88:	00030003 00040003 00040004 00050004     ................
    1c98:	00050005 00060006 00070007 00080007     ................
    1ca8:	00090008 000a0009 000b000b 000c000c     ................
    1cb8:	000e000d 000f000e 00100010 00120011     ................
    1cc8:	00140013 00150015 00170016 00190018     ................
    1cd8:	001b001a 001e001c 0020001f 00220021     .......... .!.".
    1ce8:	00250023 00270026 002a0029 002d002c     #.%.&.'.).*.,.-.
    1cf8:	0030002f 00330032 00370035 003a0038     /.0.2.3.5.7.8.:.
    1d08:	003e003c 00410040 00450043 00490047     <.>.@.A.C.E.G.I.
    1d18:	004e004b 00520050 00560054 005b0059     K.N.P.R.T.V.Y.[.
    1d28:	0060005d 00650062 006a0067 006f006d     ].`.b.e.g.j.m.o.
    1d38:	00750072 007b0078 0080007e 00870083     r.u.x.{.~.......
    1d48:	008d008a 00930090 009a0097 00a1009d     ................
    1d58:	00a800a4 00af00ab 00b600b3 00be00ba     ................
    1d68:	00c600c2 00ce00ca 00d600d2 00df00db     ................
    1d78:	00e800e3 00f100ec 00fa00f5 010300fe     ................
    1d88:	010d0108 01170112 0121011c 012b0126     ..........!.&.+.
    1d98:	01360131 0141013b 014c0146 01570152     1.6.;.A.F.L.R.W.
    1da8:	0163015d 016f0169 017b0175 01870181     ].c.i.o.u.{.....
    1db8:	0194018e 01a1019b 01ae01a8 01bc01b5     ................
    1dc8:	01ca01c3 01d801d1 01e601df 01f501ed     ................
    1dd8:	020401fc 0213020b 0222021b 0232022a     ..........".*.2.
    1de8:	0242023a 0253024b 0264025b 0275026c     :.B.K.S.[.d.l.u.
    1df8:	0286027d 0298028f 02aa02a1 02bc02b3     }...............
    1e08:	02cf02c5 02e202d8 02f502eb 030902ff     ................
    1e18:	031d0313 03310327 0346033b 035b0350     ....'.1.;.F.P.[.
    1e28:	03700365 0386037b 039c0391 03b203a7     e.p.{...........
    1e38:	03c903be 03e003d5 03f803ec 04100404     ................
    1e48:	0428041c 04410434 045a044d 04730466     ..(.4.A.M.Z.f.s.
    1e58:	048d0480 04a7049a 04c204b4 04dd04cf     ................
    1e68:	04f804ea 05140506 05300522 054d053e     ........".0.>.M.
    1e78:	056a055b 05870578 05a50596 05c305b4     [.j.x...........
    1e88:	05e205d2 060105f1 06200610 06400630     .......... .0.@.
    1e98:	06600650 06810671 06a20692 06c406b3     P.`.q...........
    1ea8:	06e606d5 070806f7 072b071a 074f073d     ..........+.=.O.
    1eb8:	07730761 07970785 07bc07a9 07e107ce     a.s.............
    1ec8:	080707f4 082d081a 08530840 087b0867     ......-.@.S.g.{.
    1ed8:	08a2088e 08ca08b6 08f308de 091c0907     ................
    1ee8:	09450930 096f095a 099a0984 09c509af     0.E.Z.o.........
    1ef8:	09f009da 0a1c0a06 0a490a32 0a760a5f     ........2.I._.v.
    1f08:	0aa30a8c 0ad10aba 0b000ae8 0b2f0b17     ............../.
    1f18:	0b5e0b47 0b8f0b76 0bbf0ba7 0bf00bd8     G.^.v...........
    1f28:	0c220c09 0c540c3b 0c870c6e 0cba0ca1     ..".;.T.n.......
    1f38:	0cee0cd4 0d230d08 0d580d3d 0d8d0d72     ......#.=.X.r...
    1f48:	0dc30da8 0dfa0dde 0e310e15 0e690e4d     ..........1.M.i.
    1f58:	0ea10e85 0eda0ebd 0f130ef7 0f4d0f30     ............0.M.
    1f68:	0f880f6b 0fc30fa6 0fff0fe1              k...........

00001f74 <xy_fade_down>:
    1f74:	0fe10fff 0fa60fc3 0f6b0f88 0f300f4d     ..........k.M.0.
    1f84:	0ef70f13 0ebd0eda 0e850ea1 0e4d0e69     ............i.M.
    1f94:	0e150e31 0dde0dfa 0da80dc3 0d720d8d     1.............r.
    1fa4:	0d3d0d58 0d080d23 0cd40cee 0ca10cba     X.=.#...........
    1fb4:	0c6e0c87 0c3b0c54 0c090c22 0bd80bf0     ..n.T.;.".......
    1fc4:	0ba70bbf 0b760b8f 0b470b5e 0b170b2f     ......v.^.G./...
    1fd4:	0ae80b00 0aba0ad1 0a8c0aa3 0a5f0a76     ............v._.
    1fe4:	0a320a49 0a060a1c 09da09f0 09af09c5     I.2.............
    1ff4:	0984099a 095a096f 09300945 0907091c     ....o.Z.E.0.....
    2004:	08de08f3 08b608ca 088e08a2 0867087b     ............{.g.
    2014:	08400853 081a082d 07f40807 07ce07e1     S.@.-...........
    2024:	07a907bc 07850797 07610773 073d074f     ........s.a.O.=.
    2034:	071a072b 06f70708 06d506e6 06b306c4     +...............
    2044:	069206a2 06710681 06500660 06300640     ......q.`.P.@.0.
    2054:	06100620 05f10601 05d205e2 05b405c3      ...............
    2064:	059605a5 05780587 055b056a 053e054d     ......x.j.[.M.>.
    2074:	05220530 05060514 04ea04f8 04cf04dd     0.".............
    2084:	04b404c2 049a04a7 0480048d 04660473     ............s.f.
    2094:	044d045a 04340441 041c0428 04040410     Z.M.A.4.(.......
    20a4:	03ec03f8 03d503e0 03be03c9 03a703b2     ................
    20b4:	0391039c 037b0386 03650370 0350035b     ......{.p.e.[.P.
    20c4:	033b0346 03270331 0313031d 02ff0309     F.;.1.'.........
    20d4:	02eb02f5 02d802e2 02c502cf 02b302bc     ................
    20e4:	02a102aa 028f0298 027d0286 026c0275     ..........}.u.l.
    20f4:	025b0264 024b0253 023a0242 022a0232     d.[.S.K.B.:.2.*.
    2104:	021b0222 020b0213 01fc0204 01ed01f5     "...............
    2114:	01df01e6 01d101d8 01c301ca 01b501bc     ................
    2124:	01a801ae 019b01a1 018e0194 01810187     ................
    2134:	0175017b 0169016f 015d0163 01520157     {.u.o.i.c.].W.R.
    2144:	0146014c 013b0141 01310136 0126012b     L.F.A.;.6.1.+.&.
    2154:	011c0121 01120117 0108010d 00fe0103     !...............
    2164:	00f500fa 00ec00f1 00e300e8 00db00df     ................
    2174:	00d200d6 00ca00ce 00c200c6 00ba00be     ................
    2184:	00b300b6 00ab00af 00a400a8 009d00a1     ................
    2194:	0097009a 00900093 008a008d 00830087     ................
    21a4:	007e0080 0078007b 00720075 006d006f     ..~.{.x.u.r.o.m.
    21b4:	0067006a 00620065 005d0060 0059005b     j.g.e.b.`.].[.Y.
    21c4:	00540056 00500052 004b004e 00470049     V.T.R.P.N.K.I.G.
    21d4:	00430045 00400041 003c003e 0038003a     E.C.A.@.>.<.:.8.
    21e4:	00350037 00320033 002f0030 002c002d     7.5.3.2.0./.-.,.
    21f4:	0029002a 00260027 00230025 00210022     *.).'.&.%.#.".!.
    2204:	001f0020 001c001e 001a001b 00180019      ...............
    2214:	00160017 00150015 00130014 00110012     ................
    2224:	00100010 000e000f 000d000e 000c000c     ................
    2234:	000b000b 0009000a 00080009 00070008     ................
    2244:	00070007 00060006 00050005 00040005     ................
    2254:	00040004 00030004 00030003 00020003     ................
    2264:	00020002 00020002 00010001 00010001     ................
    2274:	00010001 00010001 00000001 00000000     ................
	...

000022a8 <_global_impure_ptr>:
    22a8:	20000008                                ... 

000022ac <_init>:
    22ac:	b5f8      	push	{r3, r4, r5, r6, r7, lr}
    22ae:	46c0      	nop			; (mov r8, r8)
    22b0:	bcf8      	pop	{r3, r4, r5, r6, r7}
    22b2:	bc08      	pop	{r3}
    22b4:	469e      	mov	lr, r3
    22b6:	4770      	bx	lr

000022b8 <__init_array_start>:
    22b8:	000014e1 	.word	0x000014e1

000022bc <__frame_dummy_init_array_entry>:
    22bc:	000000dd                                ....

000022c0 <_fini>:
    22c0:	b5f8      	push	{r3, r4, r5, r6, r7, lr}
    22c2:	46c0      	nop			; (mov r8, r8)
    22c4:	bcf8      	pop	{r3, r4, r5, r6, r7}
    22c6:	bc08      	pop	{r3}
    22c8:	469e      	mov	lr, r3
    22ca:	4770      	bx	lr

000022cc <__fini_array_start>:
    22cc:	000000b5 	.word	0x000000b5
